(dp0
S'00:26:62:E4:63:94'
p1
ccopy_reg
_reconstructor
p2
(cNode
Node
p3
c__builtin__
object
p4
Ntp5
Rp6
(dp7
S'forOSC'
p8
(lp9
S'Router'
p10
ag1
aS' 2014-03-02 23:06:51'
p11
aS'2014-03-02 23:26:27'
p12
aS'1'
p13
aS'54'
p14
aS' WEP '
p15
aS'-92'
p16
aS'None'
p17
aS' EX8G1'
p18
asS'kind'
p19
g10
sS'Power'
p20
I-92
sS'BSSID'
p21
g1
sS'Privacy'
p22
S'WEP'
p23
sS'firstTimeSeen'
p24
S'2014-03-02 23:06:51'
p25
sS'alive'
p26
I01
sS'AP'
p27
g17
sS'forDB'
p28
(dp29
g19
g10
sS'bssid'
p30
g1
sS'power'
p31
I-92
sS'times'
p32
(lp33
g11
ag12
asS'essid'
p34
g18
sS'speed'
p35
I54
ssS'lastTimeSeen'
p36
g12
sS'probedESSID'
p37
(lp38
S''
p39
asS'Speed'
p40
I54
sS'Channel'
p41
I1
sS'ESSID'
p42
S'EX8G1'
p43
sbsS'C0:C1:C0:96:5C:D3'
p44
g2
(g3
g4
Ntp45
Rp46
(dp47
g8
(lp48
g10
ag44
aS' 2014-02-25 02:07:43'
p49
aS'2014-02-25 02:30:45'
p50
aS'6'
p51
aS'54'
p52
aS' WPA2'
p53
aS'-87'
p54
ag17
aS' Frank'
p55
asg19
g10
sg20
I-87
sg21
g44
sg22
S'WPA2'
p56
sg24
S'2014-02-25 02:07:43'
p57
sg26
I01
sg27
g17
sg28
(dp58
g19
g10
sg30
g44
sg31
I-87
sg32
(lp59
g49
ag50
asg34
g55
sg35
I54
ssg36
g50
sg37
(lp60
g39
asg40
I54
sg41
I6
sg42
S'Frank'
p61
sbsS'00:0E:58:A5:CA:11'
p62
g2
(g3
g4
Ntp63
Rp64
(dp65
g8
(lp66
g10
ag62
aS' 2014-02-25 02:09:38'
p67
aS'2014-02-25 02:24:42'
p68
aS'158'
p69
aS'-1'
p70
aS' WPA '
p71
aS'-128'
p72
ag17
aS' '
p73
asg19
g10
sg20
I-128
sg21
g62
sg22
S'WPA'
p74
sg24
S'2014-02-25 02:09:38'
p75
sg26
I01
sg27
g17
sg28
(dp76
g19
g10
sg30
g62
sg31
I-128
sg32
(lp77
g67
ag68
asg34
g73
sg35
I-1
ssg36
g68
sg37
(lp78
g39
asg40
I-1
sg41
I158
sg42
g39
sbsS'00:23:97:5A:40:73'
p79
g2
(g3
g4
Ntp80
Rp81
(dp82
g8
(lp83
g10
ag79
aS' 2014-03-02 23:02:35'
p84
aS'2014-03-02 23:20:16'
p85
aS'11'
p86
aS'54'
p87
aS' WEP '
p88
aS'-90'
p89
ag17
aS' Classon1C'
p90
asg19
g10
sg20
I-90
sg21
g79
sg22
S'WEP'
p91
sg24
S'2014-03-02 23:02:35'
p92
sg26
I01
sg27
g17
sg28
(dp93
g19
g10
sg30
g79
sg31
I-90
sg32
(lp94
g84
ag85
asg34
g90
sg35
I54
ssg36
g85
sg37
(lp95
g39
asg40
I54
sg41
I11
sg42
S'Classon1C'
p96
sbsS'44:94:FC:A0:87:1F'
p97
g2
(g3
g4
Ntp98
Rp99
(dp100
g8
(lp101
g10
ag97
aS' 2014-02-25 02:17:50'
p102
aS'2014-02-25 02:26:25'
p103
ag51
aS'54'
p104
aS' WPA2'
p105
aS'-87'
p106
ag17
aS' smf13'
p107
asg19
g10
sg20
I-87
sg21
g97
sg22
S'WPA2'
p108
sg24
S'2014-02-25 02:17:50'
p109
sg26
I01
sg27
g17
sg28
(dp110
g19
g10
sg30
g97
sg31
I-87
sg32
(lp111
g102
ag103
asg34
g107
sg35
I54
ssg36
g103
sg37
(lp112
g39
asg40
I54
sg41
I6
sg42
S'smf13'
p113
sbsS'00:1C:DF:F3:D1:39'
p114
g2
(g3
g4
Ntp115
Rp116
(dp117
g8
(lp118
g10
ag114
aS' 2014-02-25 02:19:04'
p119
aS'2014-02-25 02:29:43'
p120
aS'11'
p121
aS'54'
p122
aS' WEP '
p123
aS'-88'
p124
ag17
aS' CAP'
p125
asg19
g10
sg20
I-88
sg21
g114
sg22
S'WEP'
p126
sg24
S'2014-02-25 02:19:04'
p127
sg26
I01
sg27
g17
sg28
(dp128
g19
g10
sg30
g114
sg31
I-88
sg32
(lp129
g119
ag120
asg34
g125
sg35
I54
ssg36
g120
sg37
(lp130
g39
asg40
I54
sg41
I11
sg42
S'CAP'
p131
sbsS'E0:06:E6:87:CA:2A'
p132
g2
(g3
g4
Ntp133
Rp134
(dp135
g8
(lp136
g10
ag132
aS' 2014-03-02 23:42:15'
p137
aS'2014-03-02 23:58:15'
p138
ag13
aS'54'
p139
aS' WPA2WPA '
p140
aS'-86'
p141
ag17
aS' DDW3611BE'
p142
asg19
g10
sg20
I-86
sg21
g132
sg22
g140
sg24
g137
sg26
I01
sg27
g17
sg28
(dp143
g19
g10
sg30
g132
sg31
I-86
sg32
g138
sg34
S' DDW3611BE'
p144
sg35
I54
ssg36
g138
sg37
g73
sg40
I54
sg41
I1
sg42
g142
sbsS'58:6D:8F:53:50:84'
p145
g2
(g3
g4
Ntp146
Rp147
(dp148
g8
(lp149
g10
ag145
aS' 2014-02-25 02:08:50'
p150
aS'2014-02-25 02:30:54'
p151
aS'11'
p152
aS'54'
p153
aS' WPA '
p154
aS'-85'
p155
ag17
aS' Colman'
p156
asg19
g10
sg20
I-85
sg21
g145
sg22
S'WPA'
p157
sg24
S'2014-02-25 02:08:50'
p158
sg26
I01
sg27
g17
sg28
(dp159
g19
g10
sg30
g145
sg31
I-85
sg32
(lp160
g150
ag151
asg34
g156
sg35
I54
ssg36
g151
sg37
(lp161
g39
asg40
I54
sg41
I11
sg42
S'Colman'
p162
sbsS'68:7F:74:A7:D6:D3'
p163
g2
(g3
g4
Ntp164
Rp165
(dp166
g8
(lp167
g10
ag163
aS' 2014-02-25 02:26:28'
p168
aS'2014-02-25 02:30:47'
p169
ag13
aS'54'
p170
aS' OPN '
p171
aS'-85'
p172
ag17
aS' Rozan-guest'
p173
asg19
g10
sg20
I-85
sg21
g163
sg22
S'OPN'
p174
sg24
S'2014-02-25 02:26:28'
p175
sg26
I01
sg27
g17
sg28
(dp176
g19
g10
sg30
g163
sg31
I-85
sg32
(lp177
g168
ag169
asg34
g173
sg35
I54
ssg36
g169
sg37
(lp178
g39
asg40
I54
sg41
I1
sg42
S'Rozan-guest'
p179
sbsS'68:7F:74:A7:D6:D2'
p180
g2
(g3
g4
Ntp181
Rp182
(dp183
g8
(lp184
g10
ag180
aS' 2014-02-25 02:11:35'
p185
aS'2014-02-25 02:31:06'
p186
ag13
aS'54'
p187
aS' WPA2WPA '
p188
aS'-83'
p189
ag17
aS' Rozan'
p190
asg19
g10
sg20
I-83
sg21
g180
sg22
S'WPA2WPA'
p191
sg24
S'2014-02-25 02:11:35'
p192
sg26
I01
sg27
g17
sg28
(dp193
g19
g10
sg30
g180
sg31
I-83
sg32
(lp194
g185
ag186
asg34
g190
sg35
I54
ssg36
g186
sg37
(lp195
g39
asg40
I54
sg41
I1
sg42
S'Rozan'
p196
sbsS'00:1E:2A:59:4F:8C'
p197
g2
(g3
g4
Ntp198
Rp199
(dp200
g8
(lp201
g10
ag197
aS' 2014-02-25 02:09:08'
p202
aS'2014-02-25 02:31:15'
p203
aS'11'
p204
aS'54'
p205
aS' WPA '
p206
aS'-84'
p207
ag17
aS' lmp'
p208
asg19
g10
sg20
I-84
sg21
g197
sg22
S'WPA'
p209
sg24
S'2014-02-25 02:09:08'
p210
sg26
I01
sg27
g17
sg28
(dp211
g19
g10
sg30
g197
sg31
I-84
sg32
(lp212
g202
ag203
asg34
g208
sg35
I54
ssg36
g203
sg37
(lp213
g39
asg40
I54
sg41
I11
sg42
S'lmp'
p214
sbsS'70:56:81:CC:A1:3D'
p215
g2
(g3
g4
Ntp216
Rp217
(dp218
g8
(lp219
g10
ag215
aS' 2014-02-25 02:10:26'
p220
aS'2014-02-25 02:24:13'
p221
ag51
aS'54'
p222
aS' WPA2WPA '
p223
aS'-88'
p224
ag17
aS' The Lodge Studio'
p225
asg19
g10
sg20
I-88
sg21
g215
sg22
S'WPA2WPA'
p226
sg24
S'2014-02-25 02:10:26'
p227
sg26
I01
sg27
g17
sg28
(dp228
g19
g10
sg30
g215
sg31
I-88
sg32
(lp229
g220
ag221
asg34
g225
sg35
I54
ssg36
g221
sg37
(lp230
g39
asg40
I54
sg41
I6
sg42
S'The Lodge Studio'
p231
sbsS'20:10:7A:D2:F1:35'
p232
g2
(g3
g4
Ntp233
Rp234
(dp235
g8
(lp236
g10
ag232
aS' 2014-03-02 23:05:20'
p237
aS'2014-03-02 23:26:23'
p238
aS'9'
p239
aS'54'
p240
aS' WPA2'
p241
aS'-90'
p242
ag17
aS' WiFiRSU_48216'
p243
asg19
g10
sg20
I-90
sg21
g232
sg22
S'WPA2'
p244
sg24
S'2014-03-02 23:05:20'
p245
sg26
I01
sg27
g17
sg28
(dp246
g19
g10
sg30
g232
sg31
I-90
sg32
(lp247
g237
ag238
asg34
g243
sg35
I54
ssg36
g238
sg37
(lp248
g39
asg40
I54
sg41
I9
sg42
S'WiFiRSU_48216'
p249
sbsS'04:A1:51:B0:81:8B'
p250
g2
(g3
g4
Ntp251
Rp252
(dp253
g8
(lp254
g10
ag250
aS' 2014-02-25 02:09:29'
p255
aS'2014-02-25 02:26:34'
p256
ag51
aS'54'
p257
aS' OPN '
p258
aS'-86'
p259
ag17
aS' Sanglier'
p260
asg19
g10
sg20
I-86
sg21
g250
sg22
S'OPN'
p261
sg24
S'2014-02-25 02:09:29'
p262
sg26
I01
sg27
g17
sg28
(dp263
g19
g10
sg30
g250
sg31
I-86
sg32
(lp264
g255
ag256
asg34
g260
sg35
I54
ssg36
g256
sg37
(lp265
g39
asg40
I54
sg41
I6
sg42
S'Sanglier'
p266
sbsS'9C:4E:20:C8:EE:C2'
p267
g2
(g3
g4
Ntp268
Rp269
(dp270
g8
(lp271
g10
ag267
aS' 2014-02-25 02:25:01'
p272
aS'2014-02-25 02:25:30'
p273
ag13
aS'54'
p274
aS' OPN '
p275
aS'-71'
p276
ag17
aS' NYU-ROAM3'
p277
asg19
g10
sg20
I-71
sg21
g267
sg22
S'OPN'
p278
sg24
S'2014-02-25 02:25:01'
p279
sg26
I01
sg27
g17
sg28
(dp280
g19
g10
sg30
g267
sg31
I-71
sg32
(lp281
g272
ag273
asg34
g277
sg35
I54
ssg36
g273
sg37
(lp282
g39
asg40
I54
sg41
I1
sg42
S'NYU-ROAM3'
p283
sbsS'9C:4E:20:C8:EE:C3'
p284
g2
(g3
g4
Ntp285
Rp286
(dp287
g8
(lp288
g10
ag284
aS' 2014-02-25 02:25:01'
p289
aS'2014-02-25 02:26:07'
p290
ag13
aS'54'
p291
aS' OPN '
p292
aS'-74'
p293
ag17
aS' nyupda'
p294
asg19
g10
sg20
I-74
sg21
g284
sg22
S'OPN'
p295
sg24
S'2014-02-25 02:25:01'
p296
sg26
I01
sg27
g17
sg28
(dp297
g19
g10
sg30
g284
sg31
I-74
sg32
(lp298
g289
ag290
asg34
g294
sg35
I54
ssg36
g290
sg37
(lp299
g39
asg40
I54
sg41
I1
sg42
S'nyupda'
p300
sbsS'9C:4E:20:C8:EE:C0'
p301
g2
(g3
g4
Ntp302
Rp303
(dp304
g8
(lp305
g10
ag301
aS' 2014-02-25 02:25:10'
p306
aS'2014-02-25 02:26:07'
p307
ag13
aS'54'
p308
aS' WPA2WPA '
p309
aS'-72'
p310
ag17
aS' nyu'
p311
asg19
g10
sg20
I-72
sg21
g301
sg22
S'WPA2WPA'
p312
sg24
S'2014-02-25 02:25:10'
p313
sg26
I01
sg27
g17
sg28
(dp314
g19
g10
sg30
g301
sg31
I-72
sg32
(lp315
g306
ag307
asg34
g311
sg35
I54
ssg36
g307
sg37
(lp316
g39
asg40
I54
sg41
I1
sg42
S'nyu'
p317
sbsS'9C:4E:20:C8:EE:C1'
p318
g2
(g3
g4
Ntp319
Rp320
(dp321
g8
(lp322
g10
ag318
aS' 2014-02-25 02:25:10'
p323
aS'2014-02-25 02:26:07'
p324
ag13
aS'54'
p325
aS' OPN '
p326
aS'-72'
p327
ag17
aS' nyuguest'
p328
asg19
g10
sg20
I-72
sg21
g318
sg22
S'OPN'
p329
sg24
S'2014-02-25 02:25:10'
p330
sg26
I01
sg27
g17
sg28
(dp331
g19
g10
sg30
g318
sg31
I-72
sg32
(lp332
g323
ag324
asg34
g328
sg35
I54
ssg36
g324
sg37
(lp333
g39
asg40
I54
sg41
I1
sg42
S'nyuguest'
p334
sbsS'06:A1:51:7F:5B:23'
p335
g2
(g3
g4
Ntp336
Rp337
(dp338
g8
(lp339
g10
ag335
aS' 2014-03-02 23:42:32'
p340
aS'2014-03-02 23:52:53'
p341
aS'10'
p342
aS'54'
p343
aS' OPN '
p344
aS'-89'
p345
ag17
aS' NETGEAR-Guest'
p346
asg19
g10
sg20
I-89
sg21
g335
sg22
g344
sg24
g340
sg26
I01
sg27
g17
sg28
(dp347
g19
g10
sg30
g335
sg31
I-89
sg32
g341
sg34
S' NETGEAR-Guest'
p348
sg35
I54
ssg36
g341
sg37
g73
sg40
I54
sg41
I10
sg42
g346
sbsS'00:25:9C:D4:5E:57'
p349
g2
(g3
g4
Ntp350
Rp351
(dp352
g8
(lp353
g10
ag349
aS' 2014-02-25 02:07:53'
p354
aS'2014-02-25 02:26:05'
p355
ag51
aS'54'
p356
aS' WPA2WPA '
p357
aS'-84'
p358
ag17
aS' linksys'
p359
asg19
g10
sg20
I-84
sg21
g349
sg22
S'WPA2WPA'
p360
sg24
S'2014-02-25 02:07:53'
p361
sg26
I01
sg27
g17
sg28
(dp362
g19
g10
sg30
g349
sg31
I-84
sg32
(lp363
g354
ag355
asg34
g359
sg35
I54
ssg36
g355
sg37
(lp364
g39
asg40
I54
sg41
I6
sg42
S'linksys'
p365
sbsS'F8:E4:FB:E7:8E:B9'
p366
g2
(g3
g4
Ntp367
Rp368
(dp369
g8
(lp370
g10
ag366
aS' 2014-03-02 23:42:15'
p371
aS'2014-03-02 23:50:10'
p372
ag13
aS'54'
p373
aS' WPA2'
p374
aS'-89'
p375
ag17
aS' 2G8HR'
p376
asg19
g10
sg20
I-89
sg21
g366
sg22
g374
sg24
g371
sg26
I01
sg27
g17
sg28
(dp377
g19
g10
sg30
g366
sg31
I-89
sg32
g372
sg34
S' 2G8HR'
p378
sg35
I54
ssg36
g372
sg37
g73
sg40
I54
sg41
I1
sg42
g376
sbsS'04:C5:A4:92:80:43'
p379
g2
(g3
g4
Ntp380
Rp381
(dp382
g8
(lp383
g10
ag379
aS' 2014-02-25 02:22:55'
p384
aS'2014-02-25 02:26:07'
p385
ag13
aS'54'
p386
aS' OPN '
p387
aS'-69'
p388
ag17
aS' nyupda'
p389
asg19
g10
sg20
I-69
sg21
g379
sg22
S'OPN'
p390
sg24
S'2014-02-25 02:22:55'
p391
sg26
I01
sg27
g17
sg28
(dp392
g19
g10
sg30
g379
sg31
I-69
sg32
(lp393
g384
ag385
asg34
g389
sg35
I54
ssg36
g385
sg37
(lp394
g39
asg40
I54
sg41
I1
sg42
S'nyupda'
p395
sbsS'04:C5:A4:92:80:42'
p396
g2
(g3
g4
Ntp397
Rp398
(dp399
g8
(lp400
g10
ag396
aS' 2014-02-25 02:25:01'
p401
aS'2014-02-25 02:26:07'
p402
ag13
aS'54'
p403
aS' OPN '
p404
aS'-69'
p405
ag17
aS' NYU-ROAM3'
p406
asg19
g10
sg20
I-69
sg21
g396
sg22
S'OPN'
p407
sg24
S'2014-02-25 02:25:01'
p408
sg26
I01
sg27
g17
sg28
(dp409
g19
g10
sg30
g396
sg31
I-69
sg32
(lp410
g401
ag402
asg34
g406
sg35
I54
ssg36
g402
sg37
(lp411
g39
asg40
I54
sg41
I1
sg42
S'NYU-ROAM3'
p412
sbsS'04:C5:A4:92:80:41'
p413
g2
(g3
g4
Ntp414
Rp415
(dp416
g8
(lp417
g10
ag413
aS' 2014-02-25 02:23:19'
p418
aS'2014-02-25 02:26:07'
p419
ag13
aS'54'
p420
aS' OPN '
p421
aS'-70'
p422
ag17
aS' nyuguest'
p423
asg19
g10
sg20
I-70
sg21
g413
sg22
S'OPN'
p424
sg24
S'2014-02-25 02:23:19'
p425
sg26
I01
sg27
g17
sg28
(dp426
g19
g10
sg30
g413
sg31
I-70
sg32
(lp427
g418
ag419
asg34
g423
sg35
I54
ssg36
g419
sg37
(lp428
g39
asg40
I54
sg41
I1
sg42
S'nyuguest'
p429
sbsS'04:C5:A4:92:80:40'
p430
g2
(g3
g4
Ntp431
Rp432
(dp433
g8
(lp434
g10
ag430
aS' 2014-02-25 02:21:28'
p435
aS'2014-02-25 02:26:07'
p436
ag13
aS'54'
p437
aS' WPA2WPA OPN '
p438
aS'-66'
p439
ag17
aS' nyu'
p440
asg19
g10
sg20
I-66
sg21
g430
sg22
S'WPA2WPA OPN'
p441
sg24
S'2014-02-25 02:21:28'
p442
sg26
I01
sg27
g17
sg28
(dp443
g19
g10
sg30
g430
sg31
I-66
sg32
(lp444
g435
ag436
asg34
g440
sg35
I54
ssg36
g436
sg37
(lp445
g39
asg40
I54
sg41
I1
sg42
S'nyu'
p446
sbsS'02:2F:2F:C8:B5:8A'
p447
g2
(g3
g4
Ntp448
Rp449
(dp450
g8
(lp451
g10
ag447
aS' 2014-02-25 02:20:38'
p452
aS'2014-02-25 02:25:55'
p453
aS'10'
p454
aS'11'
p455
aS' OPN '
p456
aS'-128'
p457
ag17
aS' HP898E94'
p458
asg19
g10
sg20
I-128
sg21
g447
sg22
S'OPN'
p459
sg24
S'2014-02-25 02:20:38'
p460
sg26
I01
sg27
g17
sg28
(dp461
g19
g10
sg30
g447
sg31
I-128
sg32
(lp462
g452
ag453
asg34
g458
sg35
I11
ssg36
g453
sg37
(lp463
g39
asg40
I11
sg41
I10
sg42
S'HP898E94'
p464
sbsS'9C:4E:20:C8:BA:31'
p465
g2
(g3
g4
Ntp466
Rp467
(dp468
g8
(lp469
g10
ag465
aS' 2014-02-25 02:25:08'
p470
aS'2014-02-25 02:25:28'
p471
aS'11'
p472
aS'54'
p473
aS' OPN '
p474
aS'-78'
p475
ag17
aS' nyuguest'
p476
asg19
g10
sg20
I-78
sg21
g465
sg22
S'OPN'
p477
sg24
S'2014-02-25 02:25:08'
p478
sg26
I01
sg27
g17
sg28
(dp479
g19
g10
sg30
g465
sg31
I-78
sg32
(lp480
g470
ag471
asg34
g476
sg35
I54
ssg36
g471
sg37
(lp481
g39
asg40
I54
sg41
I11
sg42
S'nyuguest'
p482
sbsS'9C:4E:20:C8:BA:30'
p483
g2
(g3
g4
Ntp484
Rp485
(dp486
g8
(lp487
g10
ag483
aS' 2014-02-25 02:25:08'
p488
aS'2014-02-25 02:25:28'
p489
aS'11'
p490
aS'54'
p491
aS' WPA2WPA '
p492
aS'-82'
p493
ag17
aS' nyu'
p494
asg19
g10
sg20
I-82
sg21
g483
sg22
S'WPA2WPA'
p495
sg24
S'2014-02-25 02:25:08'
p496
sg26
I01
sg27
g17
sg28
(dp497
g19
g10
sg30
g483
sg31
I-82
sg32
(lp498
g488
ag489
asg34
g494
sg35
I54
ssg36
g489
sg37
(lp499
g39
asg40
I54
sg41
I11
sg42
S'nyu'
p500
sbsS'9C:4E:20:C8:BA:33'
p501
g2
(g3
g4
Ntp502
Rp503
(dp504
g8
(lp505
g10
ag501
aS' 2014-02-25 02:25:08'
p506
aS'2014-02-25 02:25:08'
p507
aS'11'
p508
aS'54'
p509
aS' OPN '
p510
aS'-78'
p511
ag17
aS' nyupda'
p512
asg19
g10
sg20
I-78
sg21
g501
sg22
S'OPN'
p513
sg24
S'2014-02-25 02:25:08'
p514
sg26
I01
sg27
g17
sg28
(dp515
g19
g10
sg30
g501
sg31
I-78
sg32
(lp516
g506
ag507
asg34
g512
sg35
I54
ssg36
g507
sg37
(lp517
g39
asg40
I54
sg41
I11
sg42
S'nyupda'
p518
sbsS'D8:30:62:2F:16:15'
p519
g2
(g3
g4
Ntp520
Rp521
(dp522
g8
(lp523
g10
ag519
aS' 2014-02-25 02:26:34'
p524
aS'2014-02-25 02:30:55'
p525
ag51
aS'54'
p526
aS' WPA2'
p527
aS'-86'
p528
ag17
aS' JonH Network'
p529
asg19
g10
sg20
I-86
sg21
g519
sg22
S'WPA2'
p530
sg24
S'2014-02-25 02:26:34'
p531
sg26
I01
sg27
g17
sg28
(dp532
g19
g10
sg30
g519
sg31
I-86
sg32
(lp533
g524
ag525
asg34
g529
sg35
I54
ssg36
g525
sg37
(lp534
g39
asg40
I54
sg41
I6
sg42
S'JonH Network'
p535
sbsS'00:1E:E5:4A:CE:0A'
p536
g2
(g3
g4
Ntp537
Rp538
(dp539
g8
(lp540
g10
ag536
aS' 2014-03-02 23:00:40'
p541
aS'2014-03-02 23:19:02'
p542
ag51
aS'54'
p543
aS' WEP '
p544
aS'-89'
p545
ag17
aS' Estella'
p546
asg19
g10
sg20
I-89
sg21
g536
sg22
S'WEP'
p547
sg24
S'2014-03-02 23:00:40'
p548
sg26
I01
sg27
g17
sg28
(dp549
g19
g10
sg30
g536
sg31
I-89
sg32
(lp550
g541
ag542
asg34
g546
sg35
I54
ssg36
g542
sg37
(lp551
g39
asg40
I54
sg41
I6
sg42
S'Estella'
p552
sbsS'24:01:C7:87:0D:23'
p553
g2
(g3
g4
Ntp554
Rp555
(dp556
g8
(lp557
g10
ag553
aS' 2014-03-02 23:42:15'
p558
aS'2014-03-02 23:58:08'
p559
ag13
aS'54'
p560
aS' OPN '
p561
aS'-68'
p562
ag17
aS' CableWiFi'
p563
asg19
g10
sg20
I-68
sg21
g553
sg22
g561
sg24
g558
sg26
I01
sg27
g17
sg28
(dp564
g19
g10
sg30
g553
sg31
I-68
sg32
g559
sg34
S' CableWiFi'
p565
sg35
I54
ssg36
g559
sg37
g73
sg40
I54
sg41
I1
sg42
g563
sbsS'00:0F:66:C1:DC:A6'
p566
g2
(g3
g4
Ntp567
Rp568
(dp569
g8
(lp570
g10
ag566
aS' 2014-03-02 23:13:03'
p571
aS'2014-03-02 23:13:13'
p572
ag51
aS'11'
p573
aS' WEP '
p574
aS'-91'
p575
ag17
aS' birdsienest'
p576
asg19
g10
sg20
I-91
sg21
g566
sg22
S'WEP'
p577
sg24
S'2014-03-02 23:13:03'
p578
sg26
I01
sg27
g17
sg28
(dp579
g19
g10
sg30
g566
sg31
I-91
sg32
(lp580
g571
ag572
asg34
g576
sg35
I11
ssg36
g572
sg37
(lp581
g39
asg40
I11
sg41
I6
sg42
S'birdsienest'
p582
sbsS'24:01:C7:87:0D:21'
p583
g2
(g3
g4
Ntp584
Rp585
(dp586
g8
(lp587
g10
ag583
aS' 2014-03-02 23:42:15'
p588
aS'2014-03-02 23:58:08'
p589
ag13
aS'54'
p590
aS' OPN '
p591
aS'-69'
p592
ag17
aS' xfinitywifi'
p593
asg19
g10
sg20
I-69
sg21
g583
sg22
g591
sg24
g588
sg26
I01
sg27
g17
sg28
(dp594
g19
g10
sg30
g583
sg31
I-69
sg32
g589
sg34
S' xfinitywifi'
p595
sg35
I54
ssg36
g589
sg37
g73
sg40
I54
sg41
I1
sg42
g593
sbsS'24:01:C7:87:0D:20'
p596
g2
(g3
g4
Ntp597
Rp598
(dp599
g8
(lp600
g10
ag596
aS' 2014-03-02 23:42:15'
p601
aS'2014-03-02 23:58:08'
p602
ag13
aS'54'
p603
aS' OPN '
p604
aS'-68'
p605
ag17
aS' optimumwifi'
p606
asg19
g10
sg20
I-68
sg21
g596
sg22
g604
sg24
g601
sg26
I01
sg27
g17
sg28
(dp607
g19
g10
sg30
g596
sg31
I-68
sg32
g602
sg34
S' optimumwifi'
p608
sg35
I54
ssg36
g602
sg37
g73
sg40
I54
sg41
I1
sg42
g606
sbsS'90:72:40:20:42:04'
p609
g2
(g3
g4
Ntp610
Rp611
(dp612
g8
(lp613
g10
ag609
aS' 2014-03-02 23:49:58'
p614
aS'2014-03-02 23:49:58'
p615
ag51
aS'54'
p616
aS' WPA2'
p617
aS'-90'
p618
ag17
aS" Matthew's Wi-Fi Network"
p619
asg19
g10
sg20
I-90
sg21
g609
sg22
g617
sg24
g614
sg26
I01
sg27
g17
sg28
(dp620
g19
g10
sg30
g609
sg31
I-90
sg32
g615
sg34
S" Matthew's Wi-Fi Network"
p621
sg35
I54
ssg36
g615
sg37
g73
sg40
I54
sg41
I6
sg42
g619
sbsS'5C:50:15:05:9B:13'
p622
g2
(g3
g4
Ntp623
Rp624
(dp625
g8
(lp626
g10
ag622
aS' 2014-02-25 02:07:35'
p627
aS'2014-02-25 02:31:17'
p628
ag13
aS'54'
p629
aS' OPN '
p630
aS'-74'
p631
ag17
aS' nyupda'
p632
asg19
g10
sg20
I-74
sg21
g622
sg22
S'OPN'
p633
sg24
S'2014-02-25 02:07:35'
p634
sg26
I01
sg27
g17
sg28
(dp635
g19
g10
sg30
g622
sg31
I-74
sg32
(lp636
g627
ag628
asg34
g632
sg35
I54
ssg36
g628
sg37
(lp637
g39
asg40
I54
sg41
I1
sg42
S'nyupda'
p638
sbsS'5C:50:15:05:9B:12'
p639
g2
(g3
g4
Ntp640
Rp641
(dp642
g8
(lp643
g10
ag639
aS' 2014-02-25 02:08:13'
p644
aS'2014-02-25 02:31:17'
p645
ag13
aS'54'
p646
aS' OPN '
p647
aS'-72'
p648
ag17
aS' NYU-ROAM3'
p649
asg19
g10
sg20
I-72
sg21
g639
sg22
S'OPN'
p650
sg24
S'2014-02-25 02:08:13'
p651
sg26
I01
sg27
g17
sg28
(dp652
g19
g10
sg30
g639
sg31
I-72
sg32
(lp653
g644
ag645
asg34
g649
sg35
I54
ssg36
g645
sg37
(lp654
g39
asg40
I54
sg41
I1
sg42
S'NYU-ROAM3'
p655
sbsS'5C:50:15:05:9B:11'
p656
g2
(g3
g4
Ntp657
Rp658
(dp659
g8
(lp660
g10
ag656
aS' 2014-02-25 02:08:13'
p661
aS'2014-02-25 02:31:18'
p662
ag13
aS'54'
p663
aS' OPN '
p664
aS'-73'
p665
ag17
aS' nyuguest'
p666
asg19
g10
sg20
I-73
sg21
g656
sg22
S'OPN'
p667
sg24
S'2014-02-25 02:08:13'
p668
sg26
I01
sg27
g17
sg28
(dp669
g19
g10
sg30
g656
sg31
I-73
sg32
(lp670
g661
ag662
asg34
g666
sg35
I54
ssg36
g662
sg37
(lp671
g39
asg40
I54
sg41
I1
sg42
S'nyuguest'
p672
sbsS'5C:50:15:05:9B:10'
p673
g2
(g3
g4
Ntp674
Rp675
(dp676
g8
(lp677
g10
ag673
aS' 2014-02-25 02:07:45'
p678
aS'2014-02-25 02:31:07'
p679
ag13
aS'54'
p680
aS' WPA2WPA '
p681
aS'-76'
p682
ag17
aS' nyu'
p683
asg19
g10
sg20
I-76
sg21
g673
sg22
S'WPA2WPA'
p684
sg24
S'2014-02-25 02:07:45'
p685
sg26
I01
sg27
g17
sg28
(dp686
g19
g10
sg30
g673
sg31
I-76
sg32
(lp687
g678
ag679
asg34
g683
sg35
I54
ssg36
g679
sg37
(lp688
g39
asg40
I54
sg41
I1
sg42
S'nyu'
p689
sbsS'04:A1:51:1D:77:A1'
p690
g2
(g3
g4
Ntp691
Rp692
(dp693
g8
(lp694
g10
ag690
aS' 2014-03-02 23:42:43'
p695
aS'2014-03-02 23:57:46'
p696
aS'11'
p697
aS'54'
p698
aS' WPA2'
p699
aS'-93'
p700
ag17
aS' WIFI'
p701
asg19
g10
sg20
I-93
sg21
g690
sg22
g699
sg24
g695
sg26
I01
sg27
g17
sg28
(dp702
g19
g10
sg30
g690
sg31
I-93
sg32
g696
sg34
S' WIFI'
p703
sg35
I54
ssg36
g696
sg37
g73
sg40
I54
sg41
I11
sg42
g701
sbsS'E0:91:F5:DC:1F:6C'
p704
g2
(g3
g4
Ntp705
Rp706
(dp707
g8
(lp708
g10
ag704
aS' 2014-03-02 23:00:21'
p709
aS'2014-03-02 23:11:14'
p710
ag239
aS'54'
p711
aS' WPA2WPA '
p712
aS'-89'
p713
ag17
aS' Squizzy'
p714
asg19
g10
sg20
I-89
sg21
g704
sg22
S'WPA2WPA'
p715
sg24
S'2014-03-02 23:00:21'
p716
sg26
I01
sg27
g17
sg28
(dp717
g19
g10
sg30
g704
sg31
I-89
sg32
(lp718
g709
ag710
asg34
g714
sg35
I54
ssg36
g710
sg37
(lp719
g39
asg40
I54
sg41
I9
sg42
S'Squizzy'
p720
sbsS'00:17:0F:E5:BC:20'
p721
g2
(g3
g4
Ntp722
Rp723
(dp724
g8
(lp725
g10
ag721
aS' 2014-02-25 02:20:14'
p726
aS'2014-02-25 02:20:14'
p727
aS'2'
p728
aS'48'
p729
aS' WPA '
p730
aS'-92'
p731
ag17
aS' \x00'
p732
asg19
g10
sg20
I-92
sg21
g721
sg22
S'WPA'
p733
sg24
S'2014-02-25 02:20:14'
p734
sg26
I01
sg27
g17
sg28
(dp735
g19
g10
sg30
g721
sg31
I-92
sg32
(lp736
g726
ag727
asg34
g732
sg35
I48
ssg36
g727
sg37
(lp737
g39
asg40
I48
sg41
I2
sg42
S'\x00'
p738
sbsS'04:C5:A4:8D:D5:30'
p739
g2
(g3
g4
Ntp740
Rp741
(dp742
g8
(lp743
g10
ag739
aS' 2014-02-25 02:22:56'
p744
aS'2014-02-25 02:26:07'
p745
ag13
aS'54'
p746
aS' WPA2WPA '
p747
aS'-67'
p748
ag17
aS' nyu'
p749
asg19
g10
sg20
I-67
sg21
g739
sg22
S'WPA2WPA'
p750
sg24
S'2014-02-25 02:22:56'
p751
sg26
I01
sg27
g17
sg28
(dp752
g19
g10
sg30
g739
sg31
I-67
sg32
(lp753
g744
ag745
asg34
g749
sg35
I54
ssg36
g745
sg37
(lp754
g39
asg40
I54
sg41
I1
sg42
S'nyu'
p755
sbsS'04:C5:A4:8D:D5:31'
p756
g2
(g3
g4
Ntp757
Rp758
(dp759
g8
(lp760
g10
ag756
aS' 2014-02-25 02:22:55'
p761
aS'2014-02-25 02:26:07'
p762
ag13
aS'54'
p763
aS' OPN '
p764
aS'-73'
p765
ag17
aS' nyuguest'
p766
asg19
g10
sg20
I-73
sg21
g756
sg22
S'OPN'
p767
sg24
S'2014-02-25 02:22:55'
p768
sg26
I01
sg27
g17
sg28
(dp769
g19
g10
sg30
g756
sg31
I-73
sg32
(lp770
g761
ag762
asg34
g766
sg35
I54
ssg36
g762
sg37
(lp771
g39
asg40
I54
sg41
I1
sg42
S'nyuguest'
p772
sbsS'04:C5:A4:8D:D5:32'
p773
g2
(g3
g4
Ntp774
Rp775
(dp776
g8
(lp777
g10
ag773
aS' 2014-02-25 02:25:01'
p778
aS'2014-02-25 02:26:07'
p779
ag13
aS'54'
p780
aS' OPN '
p781
aS'-71'
p782
ag17
aS' NYU-ROAM3'
p783
asg19
g10
sg20
I-71
sg21
g773
sg22
S'OPN'
p784
sg24
S'2014-02-25 02:25:01'
p785
sg26
I01
sg27
g17
sg28
(dp786
g19
g10
sg30
g773
sg31
I-71
sg32
(lp787
g778
ag779
asg34
g783
sg35
I54
ssg36
g779
sg37
(lp788
g39
asg40
I54
sg41
I1
sg42
S'NYU-ROAM3'
p789
sbsS'04:C5:A4:8D:D5:33'
p790
g2
(g3
g4
Ntp791
Rp792
(dp793
g8
(lp794
g10
ag790
aS' 2014-02-25 02:25:01'
p795
aS'2014-02-25 02:25:29'
p796
ag13
aS'54'
p797
aS' OPN '
p798
aS'-62'
p799
ag17
aS' nyupda'
p800
asg19
g10
sg20
I-62
sg21
g790
sg22
S'OPN'
p801
sg24
S'2014-02-25 02:25:01'
p802
sg26
I01
sg27
g17
sg28
(dp803
g19
g10
sg30
g790
sg31
I-62
sg32
(lp804
g795
ag796
asg34
g800
sg35
I54
ssg36
g796
sg37
(lp805
g39
asg40
I54
sg41
I1
sg42
S'nyupda'
p806
sbsS'02:15:99:E8:57:93'
p807
g2
(g3
g4
Ntp808
Rp809
(dp810
g8
(lp811
g10
ag807
aS' 2014-02-25 02:25:08'
p812
aS'2014-02-25 02:26:05'
p813
aS'11'
p814
aS'54'
p815
aS' WPA2'
p816
aS'-82'
p817
ag17
aS' DIRECT-PvCLP-410 Series'
p818
asg19
g10
sg20
I-82
sg21
g807
sg22
S'WPA2'
p819
sg24
S'2014-02-25 02:25:08'
p820
sg26
I01
sg27
g17
sg28
(dp821
g19
g10
sg30
g807
sg31
I-82
sg32
(lp822
g812
ag813
asg34
g818
sg35
I54
ssg36
g813
sg37
(lp823
g39
asg40
I54
sg41
I11
sg42
S'DIRECT-PvCLP-410 Series'
p824
sbsS'10:8C:CF:76:07:F1'
p825
g2
(g3
g4
Ntp826
Rp827
(dp828
g8
(lp829
g10
ag825
aS' 2014-02-25 02:27:33'
p830
aS'2014-02-25 02:29:13'
p831
aS'11'
p832
aS'54'
p833
aS' OPN '
p834
aS'-81'
p835
ag17
aS' nyuguest'
p836
asg19
g10
sg20
I-81
sg21
g825
sg22
S'OPN'
p837
sg24
S'2014-02-25 02:27:33'
p838
sg26
I01
sg27
g17
sg28
(dp839
g19
g10
sg30
g825
sg31
I-81
sg32
(lp840
g830
ag831
asg34
g836
sg35
I54
ssg36
g831
sg37
(lp841
g39
asg40
I54
sg41
I11
sg42
S'nyuguest'
p842
sbsS'00:3A:98:2C:66:E0'
p843
g2
(g3
g4
Ntp844
Rp845
(dp846
g8
(lp847
g10
ag843
aS' 2014-02-25 02:08:01'
p848
aS'2014-02-25 02:30:34'
p849
aS'11'
p850
aS'54'
p851
aS' WPA '
p852
aS'-82'
p853
ag17
aS' itpsandbox'
p854
asg19
g10
sg20
I-82
sg21
g843
sg22
S'WPA'
p855
sg24
S'2014-02-25 02:08:01'
p856
sg26
I01
sg27
g17
sg28
(dp857
g19
g10
sg30
g843
sg31
I-82
sg32
(lp858
g848
ag849
asg34
g854
sg35
I54
ssg36
g849
sg37
(lp859
g39
asg40
I54
sg41
I11
sg42
S'itpsandbox'
p860
sbsS'00:3A:98:2C:66:E1'
p861
g2
(g3
g4
Ntp862
Rp863
(dp864
g8
(lp865
g10
ag861
aS' 2014-02-25 02:08:01'
p866
aS'2014-02-25 02:30:35'
p867
aS'11'
p868
aS'54'
p869
aS' WPA '
p870
aS'-81'
p871
ag17
aS' itpsandbox-test'
p872
asg19
g10
sg20
I-81
sg21
g861
sg22
S'WPA'
p873
sg24
S'2014-02-25 02:08:01'
p874
sg26
I01
sg27
g17
sg28
(dp875
g19
g10
sg30
g861
sg31
I-81
sg32
(lp876
g866
ag867
asg34
g872
sg35
I54
ssg36
g867
sg37
(lp877
g39
asg40
I54
sg41
I11
sg42
S'itpsandbox-test'
p878
sbsS'20:AA:4B:43:24:3B'
p879
g2
(g3
g4
Ntp880
Rp881
(dp882
g8
(lp883
g10
ag879
aS' 2014-02-25 02:26:33'
p884
aS'2014-02-25 02:31:06'
p885
aS'11'
p886
aS'54'
p887
aS' WPA '
p888
aS'-79'
p889
ag17
aS' Chibiza Satellite'
p890
asg19
g10
sg20
I-79
sg21
g879
sg22
S'WPA'
p891
sg24
S'2014-02-25 02:26:33'
p892
sg26
I01
sg27
g17
sg28
(dp893
g19
g10
sg30
g879
sg31
I-79
sg32
(lp894
g884
ag885
asg34
g890
sg35
I54
ssg36
g885
sg37
(lp895
g39
asg40
I54
sg41
I11
sg42
S'Chibiza Satellite'
p896
sbsS'84:1B:5E:D1:AC:34'
p897
g2
(g3
g4
Ntp898
Rp899
(dp900
g8
(lp901
g10
ag897
aS' 2014-02-25 02:07:35'
p902
aS'2014-02-25 02:25:57'
p903
ag13
aS'54'
p904
aS' WPA2'
p905
aS'-85'
p906
ag17
aS' NETGEAR26'
p907
asg19
g10
sg20
I-85
sg21
g897
sg22
S'WPA2'
p908
sg24
S'2014-02-25 02:07:35'
p909
sg26
I01
sg27
g17
sg28
(dp910
g19
g10
sg30
g897
sg31
I-85
sg32
(lp911
g902
ag903
asg34
g907
sg35
I54
ssg36
g903
sg37
(lp912
g39
asg40
I54
sg41
I1
sg42
S'NETGEAR26'
p913
sbsS'00:23:69:EE:FF:30'
p914
g2
(g3
g4
Ntp915
Rp916
(dp917
g8
(lp918
g10
ag914
aS' 2014-02-25 02:09:29'
p919
aS'2014-02-25 02:26:05'
p920
ag51
aS'54'
p921
aS' OPN '
p922
aS'-76'
p923
ag17
aS' VSS'
p924
asg19
g10
sg20
I-76
sg21
g914
sg22
S'OPN'
p925
sg24
S'2014-02-25 02:09:29'
p926
sg26
I01
sg27
g17
sg28
(dp927
g19
g10
sg30
g914
sg31
I-76
sg32
(lp928
g919
ag920
asg34
g924
sg35
I54
ssg36
g920
sg37
(lp929
g39
asg40
I54
sg41
I6
sg42
S'VSS'
p930
sbsS'30:46:9A:97:51:56'
p931
g2
(g3
g4
Ntp932
Rp933
(dp934
g8
(lp935
g10
ag931
aS' 2014-02-25 02:22:44'
p936
aS'2014-02-25 02:31:17'
p937
ag13
aS'54'
p938
aS' WPA2'
p939
aS'-80'
p940
ag17
aS' Dean'
p941
asg19
g10
sg20
I-80
sg21
g931
sg22
S'WPA2'
p942
sg24
S'2014-02-25 02:22:44'
p943
sg26
I01
sg27
g17
sg28
(dp944
g19
g10
sg30
g931
sg31
I-80
sg32
(lp945
g936
ag937
asg34
g941
sg35
I54
ssg36
g937
sg37
(lp946
g39
asg40
I54
sg41
I1
sg42
S'Dean'
p947
sbsS'CC:5D:4E:47:42:03'
p948
g2
(g3
g4
Ntp949
Rp950
(dp951
g8
(lp952
g10
ag948
aS' 2014-02-25 02:07:54'
p953
aS'2014-02-25 02:31:07'
p954
ag13
aS'54'
p955
aS' WPA2'
p956
aS'-80'
p957
ag17
aS' coco'
p958
asg19
g10
sg20
I-80
sg21
g948
sg22
S'WPA2'
p959
sg24
S'2014-02-25 02:07:54'
p960
sg26
I01
sg27
g17
sg28
(dp961
g19
g10
sg30
g948
sg31
I-80
sg32
(lp962
g953
ag954
asg34
g958
sg35
I54
ssg36
g954
sg37
(lp963
g39
asg40
I54
sg41
I1
sg42
S'coco'
p964
sbsS'7C:D1:C3:AF:66:51'
p965
g2
(g3
g4
Ntp966
Rp967
(dp968
g8
(lp969
g10
ag965
aS' 2014-02-25 02:07:43'
p970
aS'2014-02-25 02:26:25'
p971
ag51
aS'54'
p972
aS' WPA2WPA '
p973
aS'-85'
p974
ag17
aS' Poppy'
p975
asg19
g10
sg20
I-85
sg21
g965
sg22
S'WPA2WPA'
p976
sg24
S'2014-02-25 02:07:43'
p977
sg26
I01
sg27
g17
sg28
(dp978
g19
g10
sg30
g965
sg31
I-85
sg32
(lp979
g970
ag971
asg34
g975
sg35
I54
ssg36
g971
sg37
(lp980
g39
asg40
I54
sg41
I6
sg42
S'Poppy'
p981
sbsS'C8:B3:73:1D:ED:83'
p982
g2
(g3
g4
Ntp983
Rp984
(dp985
g8
(lp986
g10
ag982
aS' 2014-02-25 02:09:09'
p987
aS'2014-02-25 02:26:25'
p988
aS'133'
p989
aS'-1'
p990
aS'     '
p991
aS'-128'
p992
ag17
ag73
asg19
g10
sg20
I-128
sg21
g982
sg22
g39
sg24
S'2014-02-25 02:09:09'
p993
sg26
I01
sg27
g17
sg28
(dp994
g19
g10
sg30
g982
sg31
I-128
sg32
(lp995
g987
ag988
asg34
g73
sg35
I-1
ssg36
g988
sg37
(lp996
g39
asg40
I-1
sg41
I133
sg42
g39
sbsS'90:A2:DA:F1:01:3D'
p997
g2
(g3
g4
Ntp998
Rp999
(dp1000
g8
(lp1001
g10
ag997
aS' 2014-02-25 02:24:14'
p1002
aS'2014-02-25 02:26:17'
p1003
aS'11'
p1004
aS'54'
p1005
aS' OPN '
p1006
aS'-72'
p1007
ag17
aS' Arduino Yun-90A2DAF1013D'
p1008
asg19
g10
sg20
I-72
sg21
g997
sg22
S'OPN'
p1009
sg24
S'2014-02-25 02:24:14'
p1010
sg26
I01
sg27
g17
sg28
(dp1011
g19
g10
sg30
g997
sg31
I-72
sg32
(lp1012
g1002
ag1003
asg34
g1008
sg35
I54
ssg36
g1003
sg37
(lp1013
g39
asg40
I54
sg41
I11
sg42
S'Arduino Yun-90A2DAF1013D'
p1014
sbsS'E8:8D:28:5F:68:AF'
p1015
g2
(g3
g4
Ntp1016
Rp1017
(dp1018
g8
(lp1019
g10
ag1015
aS' 2014-02-25 02:07:53'
p1020
aS'2014-02-25 02:31:15'
p1021
ag51
aS'54'
p1022
aS' WPA2'
p1023
aS'-87'
p1024
ag17
aS' BackTime'
p1025
asg19
g10
sg20
I-87
sg21
g1015
sg22
S'WPA2'
p1026
sg24
S'2014-02-25 02:07:53'
p1027
sg26
I01
sg27
g17
sg28
(dp1028
g19
g10
sg30
g1015
sg31
I-87
sg32
(lp1029
g1020
ag1021
asg34
g1025
sg35
I54
ssg36
g1021
sg37
(lp1030
g39
asg40
I54
sg41
I6
sg42
S'BackTime'
p1031
sbsS'20:AA:4B:C2:A8:FE'
p1032
g2
(g3
g4
Ntp1033
Rp1034
(dp1035
g8
(lp1036
g10
ag1032
aS' 2014-02-25 02:09:10'
p1037
aS'2014-02-25 02:31:07'
p1038
ag13
aS'54'
p1039
aS' WPA2'
p1040
aS'-80'
p1041
ag17
aS' Gilwon Jo'
p1042
asg19
g10
sg20
I-80
sg21
g1032
sg22
S'WPA2'
p1043
sg24
S'2014-02-25 02:09:10'
p1044
sg26
I01
sg27
g17
sg28
(dp1045
g19
g10
sg30
g1032
sg31
I-80
sg32
(lp1046
g1037
ag1038
asg34
g1042
sg35
I54
ssg36
g1038
sg37
(lp1047
g39
asg40
I54
sg41
I1
sg42
S'Gilwon Jo'
p1048
sbsS'00:1D:D5:32:EB:50'
p1049
g2
(g3
g4
Ntp1050
Rp1051
(dp1052
g8
(lp1053
g10
ag1049
aS' 2014-02-25 02:07:43'
p1054
aS'2014-02-25 02:28:43'
p1055
aS'11'
p1056
aS'54'
p1057
aS' WPA2'
p1058
aS'-81'
p1059
ag17
aS' JEFFSIE'
p1060
asg19
g10
sg20
I-81
sg21
g1049
sg22
S'WPA2'
p1061
sg24
S'2014-02-25 02:07:43'
p1062
sg26
I01
sg27
g17
sg28
(dp1063
g19
g10
sg30
g1049
sg31
I-81
sg32
(lp1064
g1054
ag1055
asg34
g1060
sg35
I54
ssg36
g1055
sg37
(lp1065
g39
asg40
I54
sg41
I11
sg42
S'JEFFSIE'
p1066
sbsS'00:15:FF:45:24:AB'
p1067
g2
(g3
g4
Ntp1068
Rp1069
(dp1070
g8
(lp1071
g10
ag1067
aS' 2014-02-25 02:25:17'
p1072
aS'2014-02-25 02:25:17'
p1073
aS'5'
p1074
aS'54'
p1075
aS' WPA2'
p1076
aS'-87'
p1077
ag17
aS' MiFi4620LE Jetpack 24AB Secure'
p1078
asg19
g10
sg20
I-87
sg21
g1067
sg22
S'WPA2'
p1079
sg24
S'2014-02-25 02:25:17'
p1080
sg26
I01
sg27
g17
sg28
(dp1081
g19
g10
sg30
g1067
sg31
I-87
sg32
(lp1082
g1072
ag1073
asg34
g1078
sg35
I54
ssg36
g1073
sg37
(lp1083
g39
asg40
I54
sg41
I5
sg42
S'MiFi4620LE Jetpack 24AB Secure'
p1084
sbsS'00:23:69:E6:C7:D3'
p1085
g2
(g3
g4
Ntp1086
Rp1087
(dp1088
g8
(lp1089
g10
ag1085
aS' 2014-02-25 02:07:35'
p1090
aS'2014-02-25 02:30:15'
p1091
aS'108'
p1092
aS'-1'
p1093
aS' WPA '
p1094
aS'-128'
p1095
ag17
ag73
asg19
g10
sg20
I-128
sg21
g1085
sg22
S'WPA'
p1096
sg24
S'2014-02-25 02:07:35'
p1097
sg26
I01
sg27
g17
sg28
(dp1098
g19
g10
sg30
g1085
sg31
I-128
sg32
(lp1099
g1090
ag1091
asg34
g73
sg35
I-1
ssg36
g1091
sg37
(lp1100
g39
asg40
I-1
sg41
I108
sg42
g39
sbsS'08:ED:B9:73:71:BE'
p1101
g2
(g3
g4
Ntp1102
Rp1103
(dp1104
g8
(lp1105
g10
ag1101
aS' 2014-02-25 02:08:12'
p1106
aS'2014-02-25 02:26:16'
p1107
ag13
aS'54'
p1108
aS' WPA '
p1109
aS'-84'
p1110
ag17
aS' DDW3611DB'
p1111
asg19
g10
sg20
I-84
sg21
g1101
sg22
S'WPA'
p1112
sg24
S'2014-02-25 02:08:12'
p1113
sg26
I01
sg27
g17
sg28
(dp1114
g19
g10
sg30
g1101
sg31
I-84
sg32
(lp1115
g1106
ag1107
asg34
g1111
sg35
I54
ssg36
g1107
sg37
(lp1116
g39
asg40
I54
sg41
I1
sg42
S'DDW3611DB'
p1117
sbsS'C8:60:00:94:E2:BC'
p1118
g2
(g3
g4
Ntp1119
Rp1120
(dp1121
g8
(lp1122
g10
ag1118
aS' 2014-02-25 02:08:14'
p1123
aS'2014-02-25 02:30:49'
p1124
ag728
aS'54'
p1125
aS' WPA2'
p1126
aS'-88'
p1127
ag17
aS' MOTHERSHIP'
p1128
asg19
g10
sg20
I-88
sg21
g1118
sg22
S'WPA2'
p1129
sg24
S'2014-02-25 02:08:14'
p1130
sg26
I01
sg27
g17
sg28
(dp1131
g19
g10
sg30
g1118
sg31
I-88
sg32
(lp1132
g1123
ag1124
asg34
g1128
sg35
I54
ssg36
g1124
sg37
(lp1133
g39
asg40
I54
sg41
I2
sg42
S'MOTHERSHIP'
p1134
sbsS'04:C5:A4:92:7F:91'
p1135
g2
(g3
g4
Ntp1136
Rp1137
(dp1138
g8
(lp1139
g10
ag1135
aS' 2014-02-25 02:25:10'
p1140
aS'2014-02-25 02:26:07'
p1141
ag13
aS'54'
p1142
aS' OPN '
p1143
aS'-74'
p1144
ag17
aS' nyuguest'
p1145
asg19
g10
sg20
I-74
sg21
g1135
sg22
S'OPN'
p1146
sg24
S'2014-02-25 02:25:10'
p1147
sg26
I01
sg27
g17
sg28
(dp1148
g19
g10
sg30
g1135
sg31
I-74
sg32
(lp1149
g1140
ag1141
asg34
g1145
sg35
I54
ssg36
g1141
sg37
(lp1150
g39
asg40
I54
sg41
I1
sg42
S'nyuguest'
p1151
sbsS'10:0D:7F:67:4A:D6'
p1152
g2
(g3
g4
Ntp1153
Rp1154
(dp1155
g8
(lp1156
g10
ag1152
aS' 2014-02-25 02:07:43'
p1157
aS'2014-02-25 02:31:15'
p1158
aS'11'
p1159
aS'54'
p1160
aS' WPA '
p1161
aS'-80'
p1162
ag17
aS" Jackie's Internet"
p1163
asg19
g10
sg20
I-80
sg21
g1152
sg22
S'WPA'
p1164
sg24
S'2014-02-25 02:07:43'
p1165
sg26
I01
sg27
g17
sg28
(dp1166
g19
g10
sg30
g1152
sg31
I-80
sg32
(lp1167
g1157
ag1158
asg34
g1163
sg35
I54
ssg36
g1158
sg37
(lp1168
g39
asg40
I54
sg41
I11
sg42
S"Jackie's Internet"
p1169
sbsS'00:8E:F2:53:54:E0'
p1170
g2
(g3
g4
Ntp1171
Rp1172
(dp1173
g8
(lp1174
g10
ag1170
aS' 2014-02-25 02:19:14'
p1175
aS'2014-02-25 02:30:25'
p1176
ag51
aS'54'
p1177
aS' WPA2'
p1178
aS'-88'
p1179
ag17
aS' mellor'
p1180
asg19
g10
sg20
I-88
sg21
g1170
sg22
S'WPA2'
p1181
sg24
S'2014-02-25 02:19:14'
p1182
sg26
I01
sg27
g17
sg28
(dp1183
g19
g10
sg30
g1170
sg31
I-88
sg32
(lp1184
g1175
ag1176
asg34
g1180
sg35
I54
ssg36
g1176
sg37
(lp1185
g39
asg40
I54
sg41
I6
sg42
S'mellor'
p1186
sbsS'00:1E:31:92:6B:1D'
p1187
g2
(g3
g4
Ntp1188
Rp1189
(dp1190
g8
(lp1191
g10
ag1187
aS' 2014-03-02 23:06:32'
p1192
aS'2014-03-02 23:15:05'
p1193
aS'-1'
p1194
aS'-1'
p1195
aS'     '
p1196
aS'-128'
p1197
ag17
ag73
asg19
g10
sg20
I-128
sg21
g1187
sg22
g39
sg24
S'2014-03-02 23:06:32'
p1198
sg26
I01
sg27
g17
sg28
(dp1199
g19
g10
sg30
g1187
sg31
I-128
sg32
(lp1200
g1192
ag1193
asg34
g73
sg35
I-1
ssg36
g1193
sg37
(lp1201
g39
asg40
I-1
sg41
I-1
sg42
g39
sbsS'00:24:01:6F:E5:7B'
p1202
g2
(g3
g4
Ntp1203
Rp1204
(dp1205
g8
(lp1206
g10
ag1202
aS' 2014-03-02 23:42:33'
p1207
aS'2014-03-02 23:58:06'
p1208
aS'11'
p1209
aS'54'
p1210
aS' WPA2WPA '
p1211
aS'-90'
p1212
ag17
aS' cdsc-wireless'
p1213
asg19
g10
sg20
I-90
sg21
g1202
sg22
g1211
sg24
g1207
sg26
I01
sg27
g17
sg28
(dp1214
g19
g10
sg30
g1202
sg31
I-90
sg32
g1208
sg34
S' cdsc-wireless'
p1215
sg35
I54
ssg36
g1208
sg37
g73
sg40
I54
sg41
I11
sg42
g1213
sbsS'20:C9:D0:24:D3:21'
p1216
g2
(g3
g4
Ntp1217
Rp1218
(dp1219
g8
(lp1220
g10
ag1216
aS' 2014-02-25 02:14:16'
p1221
aS'2014-02-25 02:28:33'
p1222
aS'11'
p1223
aS'54'
p1224
aS' WPA2'
p1225
aS'-84'
p1226
ag17
aS' oh my zod'
p1227
asg19
g10
sg20
I-84
sg21
g1216
sg22
S'WPA2'
p1228
sg24
S'2014-02-25 02:14:16'
p1229
sg26
I01
sg27
g17
sg28
(dp1230
g19
g10
sg30
g1216
sg31
I-84
sg32
(lp1231
g1221
ag1222
asg34
g1227
sg35
I54
ssg36
g1222
sg37
(lp1232
g39
asg40
I54
sg41
I11
sg42
S'oh my zod'
p1233
sbsS'44:94:FC:55:03:AF'
p1234
g2
(g3
g4
Ntp1235
Rp1236
(dp1237
g8
(lp1238
g10
ag1234
aS' 2014-03-02 23:00:11'
p1239
aS'2014-03-02 23:04:44'
p1240
aS'11'
p1241
aS'54'
p1242
aS' WPA2WPA '
p1243
aS'-91'
p1244
ag17
aS' 5503B0'
p1245
asg19
g10
sg20
I-91
sg21
g1234
sg22
S'WPA2WPA'
p1246
sg24
S'2014-03-02 23:00:11'
p1247
sg26
I01
sg27
g17
sg28
(dp1248
g19
g10
sg30
g1234
sg31
I-91
sg32
(lp1249
g1239
ag1240
asg34
g1245
sg35
I54
ssg36
g1240
sg37
(lp1250
g39
asg40
I54
sg41
I11
sg42
S'5503B0'
p1251
sbsS'02:2F:CF:DC:0A:D8'
p1252
g2
(g3
g4
Ntp1253
Rp1254
(dp1255
g8
(lp1256
g10
ag1252
aS' 2014-02-25 02:20:38'
p1257
aS'2014-02-25 02:31:13'
p1258
aS'10'
p1259
aS'11'
p1260
aS' OPN '
p1261
aS'-128'
p1262
ag17
aS' HPC5116F'
p1263
asg19
g10
sg20
I-128
sg21
g1252
sg22
S'OPN'
p1264
sg24
S'2014-02-25 02:20:38'
p1265
sg26
I01
sg27
g17
sg28
(dp1266
g19
g10
sg30
g1252
sg31
I-128
sg32
(lp1267
g1257
ag1258
asg34
g1263
sg35
I11
ssg36
g1258
sg37
(lp1268
g39
asg40
I11
sg41
I10
sg42
S'HPC5116F'
p1269
sbsS'00:24:36:A9:02:99'
p1270
g2
(g3
g4
Ntp1271
Rp1272
(dp1273
g8
(lp1274
g10
ag1270
aS' 2014-02-25 02:09:29'
p1275
aS'2014-02-25 02:28:44'
p1276
ag51
aS'54'
p1277
aS' WPA2'
p1278
aS'-86'
p1279
ag17
aS" Emily's Wi-Fi Network"
p1280
asg19
g10
sg20
I-86
sg21
g1270
sg22
S'WPA2'
p1281
sg24
S'2014-02-25 02:09:29'
p1282
sg26
I01
sg27
g17
sg28
(dp1283
g19
g10
sg30
g1270
sg31
I-86
sg32
(lp1284
g1275
ag1276
asg34
g1280
sg35
I54
ssg36
g1276
sg37
(lp1285
g39
asg40
I54
sg41
I6
sg42
S"Emily's Wi-Fi Network"
p1286
sbsS'28:C6:8E:81:D2:CD'
p1287
g2
(g3
g4
Ntp1288
Rp1289
(dp1290
g8
(lp1291
g10
ag1287
aS' 2014-02-25 02:07:53'
p1292
aS'2014-02-25 02:30:47'
p1293
aS'7'
p1294
aS'54'
p1295
aS' WPA2'
p1296
aS'-88'
p1297
ag17
aS' 300 5E'
p1298
asg19
g10
sg20
I-88
sg21
g1287
sg22
S'WPA2'
p1299
sg24
S'2014-02-25 02:07:53'
p1300
sg26
I01
sg27
g17
sg28
(dp1301
g19
g10
sg30
g1287
sg31
I-88
sg32
(lp1302
g1292
ag1293
asg34
g1298
sg35
I54
ssg36
g1293
sg37
(lp1303
g39
asg40
I54
sg41
I7
sg42
S'300 5E'
p1304
sbsS'00:1F:F3:BF:C4:BE'
p1305
g2
(g3
g4
Ntp1306
Rp1307
(dp1308
g8
(lp1309
g10
ag1305
aS' 2014-02-25 02:09:29'
p1310
aS'2014-02-25 02:30:14'
p1311
aS'133'
p1312
aS'-1'
p1313
aS' WPA '
p1314
aS'-86'
p1315
ag17
ag73
asg19
g10
sg20
I-86
sg21
g1305
sg22
S'WPA'
p1316
sg24
S'2014-02-25 02:09:29'
p1317
sg26
I01
sg27
g17
sg28
(dp1318
g19
g10
sg30
g1305
sg31
I-86
sg32
(lp1319
g1310
ag1311
asg34
g73
sg35
I-1
ssg36
g1311
sg37
(lp1320
g39
asg40
I-1
sg41
I133
sg42
g39
sbsS'10:BF:48:53:83:A0'
p1321
g2
(g3
g4
Ntp1322
Rp1323
(dp1324
g8
(lp1325
g10
ag1321
aS' 2014-02-25 02:09:49'
p1326
aS'2014-02-25 02:30:27'
p1327
ag13
aS'54'
p1328
aS' WPA2WPA '
p1329
aS'-85'
p1330
ag17
aS' MercerHKK'
p1331
asg19
g10
sg20
I-85
sg21
g1321
sg22
S'WPA2WPA'
p1332
sg24
S'2014-02-25 02:09:49'
p1333
sg26
I01
sg27
g17
sg28
(dp1334
g19
g10
sg30
g1321
sg31
I-85
sg32
(lp1335
g1326
ag1327
asg34
g1331
sg35
I54
ssg36
g1327
sg37
(lp1336
g39
asg40
I54
sg41
I1
sg42
S'MercerHKK'
p1337
sbsS'00:26:F3:E0:1A:36'
p1338
g2
(g3
g4
Ntp1339
Rp1340
(dp1341
g8
(lp1342
g10
ag1338
aS' 2014-02-25 02:10:28'
p1343
aS'2014-02-25 02:31:17'
p1344
ag13
aS'54'
p1345
aS' WEP '
p1346
aS'-84'
p1347
ag17
aS' 1A34'
p1348
asg19
g10
sg20
I-84
sg21
g1338
sg22
S'WEP'
p1349
sg24
S'2014-02-25 02:10:28'
p1350
sg26
I01
sg27
g17
sg28
(dp1351
g19
g10
sg30
g1338
sg31
I-84
sg32
(lp1352
g1343
ag1344
asg34
g1348
sg35
I54
ssg36
g1344
sg37
(lp1353
g39
asg40
I54
sg41
I1
sg42
S'1A34'
p1354
sbsS'64:A0:E7:88:D4:C4'
p1355
g2
(g3
g4
Ntp1356
Rp1357
(dp1358
g8
(lp1359
g10
ag1355
aS' 2014-02-25 02:25:48'
p1360
aS'2014-02-25 02:25:57'
p1361
ag13
aS'54'
p1362
aS' WPA2'
p1363
aS'-79'
p1364
ag17
aS' eduroam'
p1365
asg19
g10
sg20
I-79
sg21
g1355
sg22
S'WPA2'
p1366
sg24
S'2014-02-25 02:25:48'
p1367
sg26
I01
sg27
g17
sg28
(dp1368
g19
g10
sg30
g1355
sg31
I-79
sg32
(lp1369
g1360
ag1361
asg34
g1365
sg35
I54
ssg36
g1361
sg37
(lp1370
g39
asg40
I54
sg41
I1
sg42
S'eduroam'
p1371
sbsS'64:A0:E7:88:D4:C3'
p1372
g2
(g3
g4
Ntp1373
Rp1374
(dp1375
g8
(lp1376
g10
ag1372
aS' 2014-02-25 02:25:48'
p1377
aS'2014-02-25 02:25:57'
p1378
ag13
aS'54'
p1379
aS' OPN '
p1380
aS'-73'
p1381
ag17
aS' nyupda'
p1382
asg19
g10
sg20
I-73
sg21
g1372
sg22
S'OPN'
p1383
sg24
S'2014-02-25 02:25:48'
p1384
sg26
I01
sg27
g17
sg28
(dp1385
g19
g10
sg30
g1372
sg31
I-73
sg32
(lp1386
g1377
ag1378
asg34
g1382
sg35
I54
ssg36
g1378
sg37
(lp1387
g39
asg40
I54
sg41
I1
sg42
S'nyupda'
p1388
sbsS'00:22:2D:97:CB:8B'
p1389
g2
(g3
g4
Ntp1390
Rp1391
(dp1392
g8
(lp1393
g10
ag1389
aS' 2014-02-25 02:07:35'
p1394
aS'2014-02-25 02:31:18'
p1395
ag13
aS'54'
p1396
aS' WEP '
p1397
aS'-77'
p1398
ag17
aS' CB89'
p1399
asg19
g10
sg20
I-77
sg21
g1389
sg22
S'WEP'
p1400
sg24
S'2014-02-25 02:07:35'
p1401
sg26
I01
sg27
g17
sg28
(dp1402
g19
g10
sg30
g1389
sg31
I-77
sg32
(lp1403
g1394
ag1395
asg34
g1399
sg35
I54
ssg36
g1395
sg37
(lp1404
g39
asg40
I54
sg41
I1
sg42
S'CB89'
p1405
sbsS'64:A0:E7:88:D4:C0'
p1406
g2
(g3
g4
Ntp1407
Rp1408
(dp1409
g8
(lp1410
g10
ag1406
aS' 2014-02-25 02:25:48'
p1411
aS'2014-02-25 02:25:48'
p1412
ag13
aS'54'
p1413
aS' WPA2WPA '
p1414
aS'-73'
p1415
ag17
aS' nyu'
p1416
asg19
g10
sg20
I-73
sg21
g1406
sg22
S'WPA2WPA'
p1417
sg24
S'2014-02-25 02:25:48'
p1418
sg26
I01
sg27
g17
sg28
(dp1419
g19
g10
sg30
g1406
sg31
I-73
sg32
(lp1420
g1411
ag1412
asg34
g1416
sg35
I54
ssg36
g1412
sg37
(lp1421
g39
asg40
I54
sg41
I1
sg42
S'nyu'
p1422
sbsS'00:22:6B:44:66:3A'
p1423
g2
(g3
g4
Ntp1424
Rp1425
(dp1426
g8
(lp1427
g10
ag1423
aS' 2014-03-02 23:44:29'
p1428
aS'2014-03-02 23:49:28'
p1429
ag51
aS'54'
p1430
aS' WPA2WPA '
p1431
aS'-90'
p1432
ag17
aS' christall'
p1433
asg19
g10
sg20
I-90
sg21
g1423
sg22
g1431
sg24
g1428
sg26
I01
sg27
g17
sg28
(dp1434
g19
g10
sg30
g1423
sg31
I-90
sg32
g1429
sg34
S' christall'
p1435
sg35
I54
ssg36
g1429
sg37
g73
sg40
I54
sg41
I6
sg42
g1433
sbsS'04:A1:51:E5:3C:9E'
p1436
g2
(g3
g4
Ntp1437
Rp1438
(dp1439
g8
(lp1440
g10
ag1436
aS' 2014-03-02 23:02:07'
p1441
aS'2014-03-02 23:28:58'
p1442
ag51
aS'54'
p1443
aS' WPA2WPA '
p1444
aS'-89'
p1445
ag17
aS' E53C9F'
p1446
asg19
g10
sg20
I-89
sg21
g1436
sg22
S'WPA2WPA'
p1447
sg24
S'2014-03-02 23:02:07'
p1448
sg26
I01
sg27
g17
sg28
(dp1449
g19
g10
sg30
g1436
sg31
I-89
sg32
(lp1450
g1441
ag1442
asg34
g1446
sg35
I54
ssg36
g1442
sg37
(lp1451
g39
asg40
I54
sg41
I6
sg42
S'E53C9F'
p1452
sbsS'48:F8:B3:3F:58:BF'
p1453
g2
(g3
g4
Ntp1454
Rp1455
(dp1456
g8
(lp1457
g10
ag1453
aS' 2014-02-25 02:26:16'
p1458
aS'2014-02-25 02:30:27'
p1459
ag13
aS'54'
p1460
aS' WPA2WPA '
p1461
aS'-82'
p1462
ag17
aS' 10G'
p1463
asg19
g10
sg20
I-82
sg21
g1453
sg22
S'WPA2WPA'
p1464
sg24
S'2014-02-25 02:26:16'
p1465
sg26
I01
sg27
g17
sg28
(dp1466
g19
g10
sg30
g1453
sg31
I-82
sg32
(lp1467
g1458
ag1459
asg34
g1463
sg35
I54
ssg36
g1459
sg37
(lp1468
g39
asg40
I54
sg41
I1
sg42
S'10G'
p1469
sbsS'04:C5:A4:C2:1D:92'
p1470
g2
(g3
g4
Ntp1471
Rp1472
(dp1473
g8
(lp1474
g10
ag1470
aS' 2014-02-25 02:22:53'
p1475
aS'2014-02-25 02:26:05'
p1476
ag51
aS'54'
p1477
aS' OPN '
p1478
aS'-74'
p1479
ag17
aS' NYU-ROAM3'
p1480
asg19
g10
sg20
I-74
sg21
g1470
sg22
S'OPN'
p1481
sg24
S'2014-02-25 02:22:53'
p1482
sg26
I01
sg27
g17
sg28
(dp1483
g19
g10
sg30
g1470
sg31
I-74
sg32
(lp1484
g1475
ag1476
asg34
g1480
sg35
I54
ssg36
g1476
sg37
(lp1485
g39
asg40
I54
sg41
I6
sg42
S'NYU-ROAM3'
p1486
sbsS'04:C5:A4:C2:1D:91'
p1487
g2
(g3
g4
Ntp1488
Rp1489
(dp1490
g8
(lp1491
g10
ag1487
aS' 2014-02-25 02:22:53'
p1492
aS'2014-02-25 02:26:05'
p1493
ag51
aS'54'
p1494
aS' OPN '
p1495
aS'-72'
p1496
ag17
aS' nyuguest'
p1497
asg19
g10
sg20
I-72
sg21
g1487
sg22
S'OPN'
p1498
sg24
S'2014-02-25 02:22:53'
p1499
sg26
I01
sg27
g17
sg28
(dp1500
g19
g10
sg30
g1487
sg31
I-72
sg32
(lp1501
g1492
ag1493
asg34
g1497
sg35
I54
ssg36
g1493
sg37
(lp1502
g39
asg40
I54
sg41
I6
sg42
S'nyuguest'
p1503
sbsS'04:C5:A4:C2:1D:90'
p1504
g2
(g3
g4
Ntp1505
Rp1506
(dp1507
g8
(lp1508
g10
ag1504
aS' 2014-02-25 02:16:50'
p1509
aS'2014-02-25 02:26:05'
p1510
ag51
aS'54'
p1511
aS' WPA2WPA OPN '
p1512
aS'-74'
p1513
ag17
aS' nyu'
p1514
asg19
g10
sg20
I-74
sg21
g1504
sg22
S'WPA2WPA OPN'
p1515
sg24
S'2014-02-25 02:16:50'
p1516
sg26
I01
sg27
g17
sg28
(dp1517
g19
g10
sg30
g1504
sg31
I-74
sg32
(lp1518
g1509
ag1510
asg34
g1514
sg35
I54
ssg36
g1510
sg37
(lp1519
g39
asg40
I54
sg41
I6
sg42
S'nyu'
p1520
sbsS'00:3A:98:2B:FD:00'
p1521
g2
(g3
g4
Ntp1522
Rp1523
(dp1524
g8
(lp1525
g10
ag1521
aS' 2014-02-25 02:07:41'
p1526
aS'2014-02-25 02:31:16'
p1527
aS'11'
p1528
aS'54'
p1529
aS' WPA '
p1530
aS'-45'
p1531
ag17
aS' itpsandbox'
p1532
asg19
g10
sg20
I-45
sg21
g1521
sg22
S'WPA'
p1533
sg24
S'2014-02-25 02:07:41'
p1534
sg26
I01
sg27
g17
sg28
(dp1535
g19
g10
sg30
g1521
sg31
I-45
sg32
(lp1536
g1526
ag1527
asg34
g1532
sg35
I54
ssg36
g1527
sg37
(lp1537
g39
asg40
I54
sg41
I11
sg42
S'itpsandbox'
p1538
sbsS'22:C9:D0:24:D3:22'
p1539
g2
(g3
g4
Ntp1540
Rp1541
(dp1542
g8
(lp1543
g10
ag1539
aS' 2014-02-25 02:18:22'
p1544
aS'2014-02-25 02:27:42'
p1545
aS'11'
p1546
aS'54'
p1547
aS' WPA2'
p1548
aS'-84'
p1549
ag17
aS' oh my zod Guest Network'
p1550
asg19
g10
sg20
I-84
sg21
g1539
sg22
S'WPA2'
p1551
sg24
S'2014-02-25 02:18:22'
p1552
sg26
I01
sg27
g17
sg28
(dp1553
g19
g10
sg30
g1539
sg31
I-84
sg32
(lp1554
g1544
ag1545
asg34
g1550
sg35
I54
ssg36
g1545
sg37
(lp1555
g39
asg40
I54
sg41
I11
sg42
S'oh my zod Guest Network'
p1556
sbsS'9C:4E:20:72:B2:21'
p1557
g2
(g3
g4
Ntp1558
Rp1559
(dp1560
g8
(lp1561
g10
ag1557
aS' 2014-02-25 02:25:09'
p1562
aS'2014-02-25 02:25:09'
p1563
ag51
aS'54'
p1564
aS' OPN '
p1565
aS'-78'
p1566
ag17
aS' nyuguest'
p1567
asg19
g10
sg20
I-78
sg21
g1557
sg22
S'OPN'
p1568
sg24
S'2014-02-25 02:25:09'
p1569
sg26
I01
sg27
g17
sg28
(dp1570
g19
g10
sg30
g1557
sg31
I-78
sg32
(lp1571
g1562
ag1563
asg34
g1567
sg35
I54
ssg36
g1563
sg37
(lp1572
g39
asg40
I54
sg41
I6
sg42
S'nyuguest'
p1573
sbsS'04:C5:A4:C2:1D:93'
p1574
g2
(g3
g4
Ntp1575
Rp1576
(dp1577
g8
(lp1578
g10
ag1574
aS' 2014-02-25 02:25:00'
p1579
aS'2014-02-25 02:26:05'
p1580
ag51
aS'54'
p1581
aS' OPN '
p1582
aS'-75'
p1583
ag17
aS' nyupda'
p1584
asg19
g10
sg20
I-75
sg21
g1574
sg22
S'OPN'
p1585
sg24
S'2014-02-25 02:25:00'
p1586
sg26
I01
sg27
g17
sg28
(dp1587
g19
g10
sg30
g1574
sg31
I-75
sg32
(lp1588
g1579
ag1580
asg34
g1584
sg35
I54
ssg36
g1580
sg37
(lp1589
g39
asg40
I54
sg41
I6
sg42
S'nyupda'
p1590
sbsS'02:23:93:43:DC:3E'
p1591
g2
(g3
g4
Ntp1592
Rp1593
(dp1594
g8
(lp1595
g10
ag1591
aS' 2014-02-25 02:25:35'
p1596
aS'2014-02-25 02:25:54'
p1597
aS'10'
p1598
aS'11'
p1599
aS' OPN '
p1600
aS'-128'
p1601
ag17
aS' HPC85FA6'
p1602
asg19
g10
sg20
I-128
sg21
g1591
sg22
S'OPN'
p1603
sg24
S'2014-02-25 02:25:35'
p1604
sg26
I01
sg27
g17
sg28
(dp1605
g19
g10
sg30
g1591
sg31
I-128
sg32
(lp1606
g1596
ag1597
asg34
g1602
sg35
I11
ssg36
g1597
sg37
(lp1607
g39
asg40
I11
sg41
I10
sg42
S'HPC85FA6'
p1608
sbsS'84:74:2A:EA:23:C4'
p1609
g2
(g3
g4
Ntp1610
Rp1611
(dp1612
g8
(lp1613
g10
ag1609
aS' 2014-02-25 02:16:44'
p1614
aS'2014-02-25 02:17:03'
p1615
ag13
aS'54'
p1616
aS' WPA '
p1617
aS'-86'
p1618
ag17
aS' T-Mobile Broadband32'
p1619
asg19
g10
sg20
I-86
sg21
g1609
sg22
S'WPA'
p1620
sg24
S'2014-02-25 02:16:44'
p1621
sg26
I01
sg27
g17
sg28
(dp1622
g19
g10
sg30
g1609
sg31
I-86
sg32
(lp1623
g1614
ag1615
asg34
g1619
sg35
I54
ssg36
g1615
sg37
(lp1624
g39
asg40
I54
sg41
I1
sg42
S'T-Mobile Broadband32'
p1625
sbsS'00:A0:0A:AF:BB:1D'
p1626
g2
(g3
g4
Ntp1627
Rp1628
(dp1629
g8
(lp1630
g10
ag1626
aS' 2014-02-25 02:08:42'
p1631
aS'2014-02-25 02:09:49'
p1632
ag13
aS'54'
p1633
aS' WPA2'
p1634
aS'-76'
p1635
ag17
aS' MTA2464'
p1636
asg19
g10
sg20
I-76
sg21
g1626
sg22
S'WPA2'
p1637
sg24
S'2014-02-25 02:08:42'
p1638
sg26
I01
sg27
g17
sg28
(dp1639
g19
g10
sg30
g1626
sg31
I-76
sg32
(lp1640
g1631
ag1632
asg34
g1636
sg35
I54
ssg36
g1632
sg37
(lp1641
g39
asg40
I54
sg41
I1
sg42
S'MTA2464'
p1642
sbsS'68:7F:74:46:E7:63'
p1643
g2
(g3
g4
Ntp1644
Rp1645
(dp1646
g8
(lp1647
g10
ag1643
aS' 2014-02-25 02:26:44'
p1648
aS'2014-02-25 02:31:15'
p1649
ag51
aS'54'
p1650
aS' OPN '
p1651
aS'-83'
p1652
ag17
aS' rozy30-guest'
p1653
asg19
g10
sg20
I-83
sg21
g1643
sg22
S'OPN'
p1654
sg24
S'2014-02-25 02:26:44'
p1655
sg26
I01
sg27
g17
sg28
(dp1656
g19
g10
sg30
g1643
sg31
I-83
sg32
(lp1657
g1648
ag1649
asg34
g1653
sg35
I54
ssg36
g1649
sg37
(lp1658
g39
asg40
I54
sg41
I6
sg42
S'rozy30-guest'
p1659
sbsS'68:7F:74:46:E7:62'
p1660
g2
(g3
g4
Ntp1661
Rp1662
(dp1663
g8
(lp1664
g10
ag1660
aS' 2014-02-25 02:26:44'
p1665
aS'2014-02-25 02:31:15'
p1666
ag51
aS'54'
p1667
aS' WPA2WPA '
p1668
aS'-82'
p1669
ag17
aS' rozy30'
p1670
asg19
g10
sg20
I-82
sg21
g1660
sg22
S'WPA2WPA'
p1671
sg24
S'2014-02-25 02:26:44'
p1672
sg26
I01
sg27
g17
sg28
(dp1673
g19
g10
sg30
g1660
sg31
I-82
sg32
(lp1674
g1665
ag1666
asg34
g1670
sg35
I54
ssg36
g1666
sg37
(lp1675
g39
asg40
I54
sg41
I6
sg42
S'rozy30'
p1676
sbsS'00:22:3F:90:17:27'
p1677
g2
(g3
g4
Ntp1678
Rp1679
(dp1680
g8
(lp1681
g10
ag1677
aS' 2014-02-25 02:07:42'
p1682
aS'2014-02-25 02:31:15'
p1683
ag1074
aS'54'
p1684
aS' WPA2'
p1685
aS'-81'
p1686
ag17
aS' Princeton09'
p1687
asg19
g10
sg20
I-81
sg21
g1677
sg22
S'WPA2'
p1688
sg24
S'2014-02-25 02:07:42'
p1689
sg26
I01
sg27
g17
sg28
(dp1690
g19
g10
sg30
g1677
sg31
I-81
sg32
(lp1691
g1682
ag1683
asg34
g1687
sg35
I54
ssg36
g1683
sg37
(lp1692
g39
asg40
I54
sg41
I5
sg42
S'Princeton09'
p1693
sbsS'48:F8:B3:2C:72:CB'
p1694
g2
(g3
g4
Ntp1695
Rp1696
(dp1697
g8
(lp1698
g10
ag1694
aS' 2014-02-25 02:26:35'
p1699
aS'2014-02-25 02:30:46'
p1700
ag13
aS'54'
p1701
aS' WPA2WPA '
p1702
aS'-84'
p1703
ag17
aS' josh'
p1704
asg19
g10
sg20
I-84
sg21
g1694
sg22
S'WPA2WPA'
p1705
sg24
S'2014-02-25 02:26:35'
p1706
sg26
I01
sg27
g17
sg28
(dp1707
g19
g10
sg30
g1694
sg31
I-84
sg32
(lp1708
g1699
ag1700
asg34
g1704
sg35
I54
ssg36
g1700
sg37
(lp1709
g39
asg40
I54
sg41
I1
sg42
S'josh'
p1710
sbsS'04:C5:A4:C2:30:D2'
p1711
g2
(g3
g4
Ntp1712
Rp1713
(dp1714
g8
(lp1715
g10
ag1711
aS' 2014-02-25 02:25:08'
p1716
aS'2014-02-25 02:25:28'
p1717
aS'11'
p1718
aS'54'
p1719
aS' OPN '
p1720
aS'-79'
p1721
ag17
aS' NYU-ROAM3'
p1722
asg19
g10
sg20
I-79
sg21
g1711
sg22
S'OPN'
p1723
sg24
S'2014-02-25 02:25:08'
p1724
sg26
I01
sg27
g17
sg28
(dp1725
g19
g10
sg30
g1711
sg31
I-79
sg32
(lp1726
g1716
ag1717
asg34
g1722
sg35
I54
ssg36
g1717
sg37
(lp1727
g39
asg40
I54
sg41
I11
sg42
S'NYU-ROAM3'
p1728
sbsS'04:C5:A4:C2:30:D1'
p1729
g2
(g3
g4
Ntp1730
Rp1731
(dp1732
g8
(lp1733
g10
ag1729
aS' 2014-02-25 02:25:08'
p1734
aS'2014-02-25 02:25:18'
p1735
aS'11'
p1736
aS'54'
p1737
aS' OPN '
p1738
aS'-78'
p1739
ag17
aS' nyuguest'
p1740
asg19
g10
sg20
I-78
sg21
g1729
sg22
S'OPN'
p1741
sg24
S'2014-02-25 02:25:08'
p1742
sg26
I01
sg27
g17
sg28
(dp1743
g19
g10
sg30
g1729
sg31
I-78
sg32
(lp1744
g1734
ag1735
asg34
g1740
sg35
I54
ssg36
g1735
sg37
(lp1745
g39
asg40
I54
sg41
I11
sg42
S'nyuguest'
p1746
sbsS'9C:4E:20:72:B2:20'
p1747
g2
(g3
g4
Ntp1748
Rp1749
(dp1750
g8
(lp1751
g10
ag1747
aS' 2014-02-25 02:25:09'
p1752
aS'2014-02-25 02:25:09'
p1753
ag51
aS'54'
p1754
aS' WPA2WPA '
p1755
aS'-76'
p1756
ag17
aS' nyu'
p1757
asg19
g10
sg20
I-76
sg21
g1747
sg22
S'WPA2WPA'
p1758
sg24
S'2014-02-25 02:25:09'
p1759
sg26
I01
sg27
g17
sg28
(dp1760
g19
g10
sg30
g1747
sg31
I-76
sg32
(lp1761
g1752
ag1753
asg34
g1757
sg35
I54
ssg36
g1753
sg37
(lp1762
g39
asg40
I54
sg41
I6
sg42
S'nyu'
p1763
sbsS'04:C5:A4:67:1A:70'
p1764
g2
(g3
g4
Ntp1765
Rp1766
(dp1767
g8
(lp1768
g10
ag1764
aS' 2014-02-25 02:10:15'
p1769
aS'2014-02-25 02:26:14'
p1770
aS'11'
p1771
aS'54'
p1772
aS' WPA2WPA '
p1773
aS'-56'
p1774
ag17
aS' nyu'
p1775
asg19
g10
sg20
I-56
sg21
g1764
sg22
S'WPA2WPA'
p1776
sg24
S'2014-02-25 02:10:15'
p1777
sg26
I01
sg27
g17
sg28
(dp1778
g19
g10
sg30
g1764
sg31
I-56
sg32
(lp1779
g1769
ag1770
asg34
g1775
sg35
I54
ssg36
g1770
sg37
(lp1780
g39
asg40
I54
sg41
I11
sg42
S'nyu'
p1781
sbsS'04:C5:A4:67:1A:71'
p1782
g2
(g3
g4
Ntp1783
Rp1784
(dp1785
g8
(lp1786
g10
ag1782
aS' 2014-02-25 02:08:11'
p1787
aS'2014-02-25 02:26:05'
p1788
aS'11'
p1789
aS'54'
p1790
aS' OPN '
p1791
aS'-45'
p1792
ag17
aS' nyuguest'
p1793
asg19
g10
sg20
I-45
sg21
g1782
sg22
S'OPN'
p1794
sg24
S'2014-02-25 02:08:11'
p1795
sg26
I01
sg27
g17
sg28
(dp1796
g19
g10
sg30
g1782
sg31
I-45
sg32
(lp1797
g1787
ag1788
asg34
g1793
sg35
I54
ssg36
g1788
sg37
(lp1798
g39
asg40
I54
sg41
I11
sg42
S'nyuguest'
p1799
sbsS'04:C5:A4:67:1A:72'
p1800
g2
(g3
g4
Ntp1801
Rp1802
(dp1803
g8
(lp1804
g10
ag1800
aS' 2014-02-25 02:10:06'
p1805
aS'2014-02-25 02:26:05'
p1806
aS'11'
p1807
aS'54'
p1808
aS' OPN '
p1809
aS'-43'
p1810
ag17
aS' NYU-ROAM3'
p1811
asg19
g10
sg20
I-43
sg21
g1800
sg22
S'OPN'
p1812
sg24
S'2014-02-25 02:10:06'
p1813
sg26
I01
sg27
g17
sg28
(dp1814
g19
g10
sg30
g1800
sg31
I-43
sg32
(lp1815
g1805
ag1806
asg34
g1811
sg35
I54
ssg36
g1806
sg37
(lp1816
g39
asg40
I54
sg41
I11
sg42
S'NYU-ROAM3'
p1817
sbsS'04:C5:A4:67:1A:73'
p1818
g2
(g3
g4
Ntp1819
Rp1820
(dp1821
g8
(lp1822
g10
ag1818
aS' 2014-02-25 02:10:45'
p1823
aS'2014-02-25 02:26:05'
p1824
aS'11'
p1825
aS'54'
p1826
aS' OPN '
p1827
aS'-43'
p1828
ag17
aS' nyupda'
p1829
asg19
g10
sg20
I-43
sg21
g1818
sg22
S'OPN'
p1830
sg24
S'2014-02-25 02:10:45'
p1831
sg26
I01
sg27
g17
sg28
(dp1832
g19
g10
sg30
g1818
sg31
I-43
sg32
(lp1833
g1823
ag1824
asg34
g1829
sg35
I54
ssg36
g1824
sg37
(lp1834
g39
asg40
I54
sg41
I11
sg42
S'nyupda'
p1835
sbsS'00:3A:98:2C:59:A0'
p1836
g2
(g3
g4
Ntp1837
Rp1838
(dp1839
g8
(lp1840
g10
ag1836
aS' 2014-02-25 02:07:40'
p1841
aS'2014-02-25 02:31:16'
p1842
aS'11'
p1843
aS'54'
p1844
aS' WPA '
p1845
aS'-72'
p1846
ag17
aS' itpsandbox'
p1847
asg19
g10
sg20
I-72
sg21
g1836
sg22
S'WPA'
p1848
sg24
S'2014-02-25 02:07:40'
p1849
sg26
I01
sg27
g17
sg28
(dp1850
g19
g10
sg30
g1836
sg31
I-72
sg32
(lp1851
g1841
ag1842
asg34
g1847
sg35
I54
ssg36
g1842
sg37
(lp1852
g39
asg40
I54
sg41
I11
sg42
S'itpsandbox'
p1853
sbsS'20:4E:7F:74:3D:E7'
p1854
g2
(g3
g4
Ntp1855
Rp1856
(dp1857
g8
(lp1858
g10
ag1854
aS' 2014-02-25 02:07:41'
p1859
aS'2014-02-25 02:31:14'
p1860
aS'4'
p1861
aS'54'
p1862
aS' WPA2'
p1863
aS'-75'
p1864
ag17
aS' skippy2'
p1865
asg19
g10
sg20
I-75
sg21
g1854
sg22
S'WPA2'
p1866
sg24
S'2014-02-25 02:07:41'
p1867
sg26
I01
sg27
g17
sg28
(dp1868
g19
g10
sg30
g1854
sg31
I-75
sg32
(lp1869
g1859
ag1860
asg34
g1865
sg35
I54
ssg36
g1860
sg37
(lp1870
g39
asg40
I54
sg41
I4
sg42
S'skippy2'
p1871
sbsS'00:1D:D5:35:7F:D0'
p1872
g2
(g3
g4
Ntp1873
Rp1874
(dp1875
g8
(lp1876
g10
ag1872
aS' 2014-03-02 23:42:43'
p1877
aS'2014-03-02 23:52:45'
p1878
ag51
aS'54'
p1879
aS' WPA2'
p1880
aS'-89'
p1881
ag17
aS' DG860AD2'
p1882
asg19
g10
sg20
I-89
sg21
g1872
sg22
g1880
sg24
g1877
sg26
I01
sg27
g17
sg28
(dp1883
g19
g10
sg30
g1872
sg31
I-89
sg32
g1878
sg34
S' DG860AD2'
p1884
sg35
I54
ssg36
g1878
sg37
g73
sg40
I54
sg41
I6
sg42
g1882
sbsS'28:CF:DA:BA:D7:C5'
p1885
g2
(g3
g4
Ntp1886
Rp1887
(dp1888
g8
(lp1889
g10
ag1885
aS' 2014-02-25 02:07:41'
p1890
aS'2014-02-25 02:28:11'
p1891
aS'10'
p1892
aS'54'
p1893
aS' WPA2'
p1894
aS'-87'
p1895
ag17
aS" Ilisa's Wi-Fi Network"
p1896
asg19
g10
sg20
I-87
sg21
g1885
sg22
S'WPA2'
p1897
sg24
S'2014-02-25 02:07:41'
p1898
sg26
I01
sg27
g17
sg28
(dp1899
g19
g10
sg30
g1885
sg31
I-87
sg32
(lp1900
g1890
ag1891
asg34
g1896
sg35
I54
ssg36
g1891
sg37
(lp1901
g39
asg40
I54
sg41
I10
sg42
S"Ilisa's Wi-Fi Network"
p1902
sbsS'04:C5:A4:92:4F:30'
p1903
g2
(g3
g4
Ntp1904
Rp1905
(dp1906
g8
(lp1907
g10
ag1903
aS' 2014-02-25 02:18:47'
p1908
aS'2014-02-25 02:26:07'
p1909
ag13
aS'54'
p1910
aS' WPA2WPA OPN '
p1911
aS'-65'
p1912
ag17
aS' nyu'
p1913
asg19
g10
sg20
I-65
sg21
g1903
sg22
S'WPA2WPA OPN'
p1914
sg24
S'2014-02-25 02:18:47'
p1915
sg26
I01
sg27
g17
sg28
(dp1916
g19
g10
sg30
g1903
sg31
I-65
sg32
(lp1917
g1908
ag1909
asg34
g1913
sg35
I54
ssg36
g1909
sg37
(lp1918
g39
asg40
I54
sg41
I1
sg42
S'nyu'
p1919
sbsS'04:C5:A4:92:4F:31'
p1920
g2
(g3
g4
Ntp1921
Rp1922
(dp1923
g8
(lp1924
g10
ag1920
aS' 2014-02-25 02:25:30'
p1925
aS'2014-02-25 02:25:57'
p1926
ag13
aS'54'
p1927
aS' OPN '
p1928
aS'-66'
p1929
ag17
aS' nyuguest'
p1930
asg19
g10
sg20
I-66
sg21
g1920
sg22
S'OPN'
p1931
sg24
S'2014-02-25 02:25:30'
p1932
sg26
I01
sg27
g17
sg28
(dp1933
g19
g10
sg30
g1920
sg31
I-66
sg32
(lp1934
g1925
ag1926
asg34
g1930
sg35
I54
ssg36
g1926
sg37
(lp1935
g39
asg40
I54
sg41
I1
sg42
S'nyuguest'
p1936
sbsS'04:C5:A4:92:4F:32'
p1937
g2
(g3
g4
Ntp1938
Rp1939
(dp1940
g8
(lp1941
g10
ag1937
aS' 2014-02-25 02:25:30'
p1942
aS'2014-02-25 02:26:07'
p1943
ag13
aS'54'
p1944
aS' OPN '
p1945
aS'-68'
p1946
ag17
aS' NYU-ROAM3'
p1947
asg19
g10
sg20
I-68
sg21
g1937
sg22
S'OPN'
p1948
sg24
S'2014-02-25 02:25:30'
p1949
sg26
I01
sg27
g17
sg28
(dp1950
g19
g10
sg30
g1937
sg31
I-68
sg32
(lp1951
g1942
ag1943
asg34
g1947
sg35
I54
ssg36
g1943
sg37
(lp1952
g39
asg40
I54
sg41
I1
sg42
S'NYU-ROAM3'
p1953
sbsS'04:C5:A4:92:4F:33'
p1954
g2
(g3
g4
Ntp1955
Rp1956
(dp1957
g8
(lp1958
g10
ag1954
aS' 2014-02-25 02:22:55'
p1959
aS'2014-02-25 02:25:57'
p1960
ag13
aS'54'
p1961
aS' OPN '
p1962
aS'-67'
p1963
ag17
aS' nyupda'
p1964
asg19
g10
sg20
I-67
sg21
g1954
sg22
S'OPN'
p1965
sg24
S'2014-02-25 02:22:55'
p1966
sg26
I01
sg27
g17
sg28
(dp1967
g19
g10
sg30
g1954
sg31
I-67
sg32
(lp1968
g1959
ag1960
asg34
g1964
sg35
I54
ssg36
g1960
sg37
(lp1969
g39
asg40
I54
sg41
I1
sg42
S'nyupda'
p1970
sbsS'9C:4E:20:72:B2:23'
p1971
g2
(g3
g4
Ntp1972
Rp1973
(dp1974
g8
(lp1975
g10
ag1971
aS' 2014-02-25 02:25:09'
p1976
aS'2014-02-25 02:25:09'
p1977
ag51
aS'54'
p1978
aS' OPN '
p1979
aS'-78'
p1980
ag17
aS' nyupda'
p1981
asg19
g10
sg20
I-78
sg21
g1971
sg22
S'OPN'
p1982
sg24
S'2014-02-25 02:25:09'
p1983
sg26
I01
sg27
g17
sg28
(dp1984
g19
g10
sg30
g1971
sg31
I-78
sg32
(lp1985
g1976
ag1977
asg34
g1981
sg35
I54
ssg36
g1977
sg37
(lp1986
g39
asg40
I54
sg41
I6
sg42
S'nyupda'
p1987
sbsS'C0:3F:0E:7F:1E:C6'
p1988
g2
(g3
g4
Ntp1989
Rp1990
(dp1991
g8
(lp1992
g10
ag1988
aS' 2014-02-25 02:07:57'
p1993
aS'2014-02-25 02:30:49'
p1994
aS'8'
p1995
aS'54'
p1996
aS' WPA2WPA '
p1997
aS'-86'
p1998
ag17
aS' NETGEAR-24-G'
p1999
asg19
g10
sg20
I-86
sg21
g1988
sg22
S'WPA2WPA'
p2000
sg24
S'2014-02-25 02:07:57'
p2001
sg26
I01
sg27
g17
sg28
(dp2002
g19
g10
sg30
g1988
sg31
I-86
sg32
(lp2003
g1993
ag1994
asg34
g1999
sg35
I54
ssg36
g1994
sg37
(lp2004
g39
asg40
I54
sg41
I8
sg42
S'NETGEAR-24-G'
p2005
sbsS'F8:D1:11:2C:EB:36'
p2006
g2
(g3
g4
Ntp2007
Rp2008
(dp2009
g8
(lp2010
g10
ag2006
aS' 2014-03-02 23:42:19'
p2011
aS'2014-03-02 23:58:23'
p2012
ag239
aS'54'
p2013
aS' WPA2'
p2014
aS'-78'
p2015
ag17
aS' You Know What They Say'
p2016
asg19
g10
sg20
I-78
sg21
g2006
sg22
g2014
sg24
g2011
sg26
I01
sg27
g17
sg28
(dp2017
g19
g10
sg30
g2006
sg31
I-78
sg32
g2012
sg34
S' You Know What They Say'
p2018
sg35
I54
ssg36
g2012
sg37
g73
sg40
I54
sg41
I9
sg42
g2016
sbsS'08:ED:B9:73:64:13'
p2019
g2
(g3
g4
Ntp2020
Rp2021
(dp2022
g8
(lp2023
g10
ag2019
aS' 2014-02-25 02:09:58'
p2024
aS'2014-02-25 02:22:44'
p2025
ag13
aS'54'
p2026
aS' WPA '
p2027
aS'-88'
p2028
ag17
aS' DDW36113D'
p2029
asg19
g10
sg20
I-88
sg21
g2019
sg22
S'WPA'
p2030
sg24
S'2014-02-25 02:09:58'
p2031
sg26
I01
sg27
g17
sg28
(dp2032
g19
g10
sg30
g2019
sg31
I-88
sg32
(lp2033
g2024
ag2025
asg34
g2029
sg35
I54
ssg36
g2025
sg37
(lp2034
g39
asg40
I54
sg41
I1
sg42
S'DDW36113D'
p2035
sbsS'58:6D:8F:2D:D6:C0'
p2036
g2
(g3
g4
Ntp2037
Rp2038
(dp2039
g8
(lp2040
g10
ag2036
aS' 2014-02-25 02:26:44'
p2041
aS'2014-02-25 02:30:44'
p2042
aS'11'
p2043
aS'54'
p2044
aS' WPA2WPA '
p2045
aS'-79'
p2046
ag17
aS' jabo'
p2047
asg19
g10
sg20
I-79
sg21
g2036
sg22
S'WPA2WPA'
p2048
sg24
S'2014-02-25 02:26:44'
p2049
sg26
I01
sg27
g17
sg28
(dp2050
g19
g10
sg30
g2036
sg31
I-79
sg32
(lp2051
g2041
ag2042
asg34
g2047
sg35
I54
ssg36
g2042
sg37
(lp2052
g39
asg40
I54
sg41
I11
sg42
S'jabo'
p2053
sbsS'F8:E4:FB:C0:0B:5F'
p2054
g2
(g3
g4
Ntp2055
Rp2056
(dp2057
g8
(lp2058
g10
ag2054
aS' 2014-02-25 02:08:13'
p2059
aS'2014-02-25 02:09:03'
p2060
ag13
aS'54'
p2061
aS' WPA2WPA '
p2062
aS'-81'
p2063
ag17
aS' NewGreenwich'
p2064
asg19
g10
sg20
I-81
sg21
g2054
sg22
S'WPA2WPA'
p2065
sg24
S'2014-02-25 02:08:13'
p2066
sg26
I01
sg27
g17
sg28
(dp2067
g19
g10
sg30
g2054
sg31
I-81
sg32
(lp2068
g2059
ag2060
asg34
g2064
sg35
I54
ssg36
g2060
sg37
(lp2069
g39
asg40
I54
sg41
I1
sg42
S'NewGreenwich'
p2070
sbsS'00:A0:0A:AF:3A:1D'
p2071
g2
(g3
g4
Ntp2072
Rp2073
(dp2074
g8
(lp2075
g10
ag2071
aS' 2014-02-25 02:10:28'
p2076
aS'2014-02-25 02:10:28'
p2077
ag13
aS'54'
p2078
aS' WPA2'
p2079
aS'-89'
p2080
ag17
aS' MTA2287'
p2081
asg19
g10
sg20
I-89
sg21
g2071
sg22
S'WPA2'
p2082
sg24
S'2014-02-25 02:10:28'
p2083
sg26
I01
sg27
g17
sg28
(dp2084
g19
g10
sg30
g2071
sg31
I-89
sg32
(lp2085
g2076
ag2077
asg34
g2081
sg35
I54
ssg36
g2077
sg37
(lp2086
g39
asg40
I54
sg41
I1
sg42
S'MTA2287'
p2087
sbsS'5C:57:1A:2D:2C:50'
p2088
g2
(g3
g4
Ntp2089
Rp2090
(dp2091
g8
(lp2092
g10
ag2088
aS' 2014-02-25 02:08:40'
p2093
aS'2014-02-25 02:29:43'
p2094
aS'11'
p2095
aS'54'
p2096
aS' WPA2'
p2097
aS'-88'
p2098
ag17
aS' DG860A52'
p2099
asg19
g10
sg20
I-88
sg21
g2088
sg22
S'WPA2'
p2100
sg24
S'2014-02-25 02:08:40'
p2101
sg26
I01
sg27
g17
sg28
(dp2102
g19
g10
sg30
g2088
sg31
I-88
sg32
(lp2103
g2093
ag2094
asg34
g2099
sg35
I54
ssg36
g2094
sg37
(lp2104
g39
asg40
I54
sg41
I11
sg42
S'DG860A52'
p2105
sbsS'00:3A:98:2C:59:A1'
p2106
g2
(g3
g4
Ntp2107
Rp2108
(dp2109
g8
(lp2110
g10
ag2106
aS' 2014-02-25 02:07:41'
p2111
aS'2014-02-25 02:31:16'
p2112
aS'11'
p2113
aS'54'
p2114
aS' WPA '
p2115
aS'-67'
p2116
ag17
aS' itpsandbox-test'
p2117
asg19
g10
sg20
I-67
sg21
g2106
sg22
S'WPA'
p2118
sg24
S'2014-02-25 02:07:41'
p2119
sg26
I01
sg27
g17
sg28
(dp2120
g19
g10
sg30
g2106
sg31
I-67
sg32
(lp2121
g2111
ag2112
asg34
g2117
sg35
I54
ssg36
g2112
sg37
(lp2122
g39
asg40
I54
sg41
I11
sg42
S'itpsandbox-test'
p2123
sbsS'04:C5:A4:92:4F:41'
p2124
g2
(g3
g4
Ntp2125
Rp2126
(dp2127
g8
(lp2128
g10
ag2124
aS' 2014-02-25 02:25:46'
p2129
aS'2014-02-25 02:25:46'
p2130
aS'11'
p2131
aS'54'
p2132
aS' OPN '
p2133
aS'-78'
p2134
ag17
aS' nyuguest'
p2135
asg19
g10
sg20
I-78
sg21
g2124
sg22
S'OPN'
p2136
sg24
S'2014-02-25 02:25:46'
p2137
sg26
I01
sg27
g17
sg28
(dp2138
g19
g10
sg30
g2124
sg31
I-78
sg32
(lp2139
g2129
ag2130
asg34
g2135
sg35
I54
ssg36
g2130
sg37
(lp2140
g39
asg40
I54
sg41
I11
sg42
S'nyuguest'
p2141
sbsS'04:C5:A4:92:4F:42'
p2142
g2
(g3
g4
Ntp2143
Rp2144
(dp2145
g8
(lp2146
g10
ag2142
aS' 2014-02-25 02:25:46'
p2147
aS'2014-02-25 02:25:46'
p2148
aS'11'
p2149
aS'54'
p2150
aS' OPN '
p2151
aS'-79'
p2152
ag17
aS' NYU-ROAM3'
p2153
asg19
g10
sg20
I-79
sg21
g2142
sg22
S'OPN'
p2154
sg24
S'2014-02-25 02:25:46'
p2155
sg26
I01
sg27
g17
sg28
(dp2156
g19
g10
sg30
g2142
sg31
I-79
sg32
(lp2157
g2147
ag2148
asg34
g2153
sg35
I54
ssg36
g2148
sg37
(lp2158
g39
asg40
I54
sg41
I11
sg42
S'NYU-ROAM3'
p2159
sbsS'90:72:40:15:63:88'
p2160
g2
(g3
g4
Ntp2161
Rp2162
(dp2163
g8
(lp2164
g10
ag2160
aS' 2014-02-25 02:20:01'
p2165
aS'2014-02-25 02:20:01'
p2166
aS'11'
p2167
aS'54'
p2168
aS' WPA2'
p2169
aS'-87'
p2170
ag17
aS' B-Network'
p2171
asg19
g10
sg20
I-87
sg21
g2160
sg22
S'WPA2'
p2172
sg24
S'2014-02-25 02:20:01'
p2173
sg26
I01
sg27
g17
sg28
(dp2174
g19
g10
sg30
g2160
sg31
I-87
sg32
(lp2175
g2165
ag2166
asg34
g2171
sg35
I54
ssg36
g2166
sg37
(lp2176
g39
asg40
I54
sg41
I11
sg42
S'B-Network'
p2177
sbsS'48:F8:B3:03:EF:10'
p2178
g2
(g3
g4
Ntp2179
Rp2180
(dp2181
g8
(lp2182
g10
ag2178
aS' 2014-02-25 02:26:44'
p2183
aS'2014-02-25 02:28:34'
p2184
ag51
aS'54'
p2185
aS' WPA2WPA '
p2186
aS'-89'
p2187
ag17
aS' sood'
p2188
asg19
g10
sg20
I-89
sg21
g2178
sg22
S'WPA2WPA'
p2189
sg24
S'2014-02-25 02:26:44'
p2190
sg26
I01
sg27
g17
sg28
(dp2191
g19
g10
sg30
g2178
sg31
I-89
sg32
(lp2192
g2183
ag2184
asg34
g2188
sg35
I54
ssg36
g2184
sg37
(lp2193
g39
asg40
I54
sg41
I6
sg42
S'sood'
p2194
sbsS'C4:04:15:0C:AC:AA'
p2195
g2
(g3
g4
Ntp2196
Rp2197
(dp2198
g8
(lp2199
g10
ag2195
aS' 2014-03-02 23:42:15'
p2200
aS'2014-03-02 23:58:15'
p2201
ag13
aS'54'
p2202
aS' WPA2'
p2203
aS'-82'
p2204
ag17
aS' Lee-wifi'
p2205
asg19
g10
sg20
I-82
sg21
g2195
sg22
g2203
sg24
g2200
sg26
I01
sg27
g17
sg28
(dp2206
g19
g10
sg30
g2195
sg31
I-82
sg32
g2201
sg34
S' Lee-wifi'
p2207
sg35
I54
ssg36
g2201
sg37
g73
sg40
I54
sg41
I1
sg42
g2205
sbsS'00:17:3F:A0:BB:62'
p2208
g2
(g3
g4
Ntp2209
Rp2210
(dp2211
g8
(lp2212
g10
ag2208
aS' 2014-02-25 02:07:35'
p2213
aS'2014-02-25 02:31:06'
p2214
ag13
aS'54'
p2215
aS' WPA2WPA '
p2216
aS'-78'
p2217
ag17
aS' \x00\x00\x00\x00\x00\x00\x00\x00\x00\x00\x00'
p2218
asg19
g10
sg20
I-78
sg21
g2208
sg22
S'WPA2WPA'
p2219
sg24
S'2014-02-25 02:07:35'
p2220
sg26
I01
sg27
g17
sg28
(dp2221
g19
g10
sg30
g2208
sg31
I-78
sg32
(lp2222
g2213
ag2214
asg34
g2218
sg35
I54
ssg36
g2214
sg37
(lp2223
g39
asg40
I54
sg41
I1
sg42
S'\x00\x00\x00\x00\x00\x00\x00\x00\x00\x00\x00'
p2224
sbsS'00:7F:28:71:FC:E1'
p2225
g2
(g3
g4
Ntp2226
Rp2227
(dp2228
g8
(lp2229
g10
ag2225
aS' 2014-03-02 23:00:11'
p2230
aS'2014-03-02 23:17:48'
p2231
ag51
aS'54'
p2232
aS' WPA2'
p2233
aS'-91'
p2234
ag17
aS' NNBLD'
p2235
asg19
g10
sg20
I-91
sg21
g2225
sg22
S'WPA2'
p2236
sg24
S'2014-03-02 23:00:11'
p2237
sg26
I01
sg27
g17
sg28
(dp2238
g19
g10
sg30
g2225
sg31
I-91
sg32
(lp2239
g2230
ag2231
asg34
g2235
sg35
I54
ssg36
g2231
sg37
(lp2240
g39
asg40
I54
sg41
I6
sg42
S'NNBLD'
p2241
sbsS'04:C5:A4:92:53:61'
p2242
g2
(g3
g4
Ntp2243
Rp2244
(dp2245
g8
(lp2246
g10
ag2242
aS' 2014-02-25 02:25:46'
p2247
aS'2014-02-25 02:25:55'
p2248
aS'11'
p2249
aS'54'
p2250
aS' OPN '
p2251
aS'-75'
p2252
ag17
aS' nyuguest'
p2253
asg19
g10
sg20
I-75
sg21
g2242
sg22
S'OPN'
p2254
sg24
S'2014-02-25 02:25:46'
p2255
sg26
I01
sg27
g17
sg28
(dp2256
g19
g10
sg30
g2242
sg31
I-75
sg32
(lp2257
g2247
ag2248
asg34
g2253
sg35
I54
ssg36
g2248
sg37
(lp2258
g39
asg40
I54
sg41
I11
sg42
S'nyuguest'
p2259
sbsS'04:C5:A4:92:53:60'
p2260
g2
(g3
g4
Ntp2261
Rp2262
(dp2263
g8
(lp2264
g10
ag2260
aS' 2014-02-25 02:14:29'
p2265
aS'2014-02-25 02:25:55'
p2266
aS'11'
p2267
aS'54'
p2268
aS' WPA2WPA OPN '
p2269
aS'-72'
p2270
ag17
aS' nyu'
p2271
asg19
g10
sg20
I-72
sg21
g2260
sg22
S'WPA2WPA OPN'
p2272
sg24
S'2014-02-25 02:14:29'
p2273
sg26
I01
sg27
g17
sg28
(dp2274
g19
g10
sg30
g2260
sg31
I-72
sg32
(lp2275
g2265
ag2266
asg34
g2271
sg35
I54
ssg36
g2266
sg37
(lp2276
g39
asg40
I54
sg41
I11
sg42
S'nyu'
p2277
sbsS'F8:E4:FB:EB:10:E5'
p2278
g2
(g3
g4
Ntp2279
Rp2280
(dp2281
g8
(lp2282
g10
ag2278
aS' 2014-03-02 23:43:31'
p2283
aS'2014-03-02 23:58:19'
p2284
aS'11'
p2285
aS'54'
p2286
aS' WPA2WPA '
p2287
aS'-89'
p2288
ag17
aS' SECURATEKWIFI'
p2289
asg19
g10
sg20
I-89
sg21
g2278
sg22
g2287
sg24
g2283
sg26
I01
sg27
g17
sg28
(dp2290
g19
g10
sg30
g2278
sg31
I-89
sg32
g2284
sg34
S' SECURATEKWIFI'
p2291
sg35
I54
ssg36
g2284
sg37
g73
sg40
I54
sg41
I11
sg42
g2289
sbsS'04:C5:A4:92:50:E2'
p2292
g2
(g3
g4
Ntp2293
Rp2294
(dp2295
g8
(lp2296
g10
ag2292
aS' 2014-02-25 02:07:36'
p2297
aS'2014-02-25 02:31:18'
p2298
ag13
aS'54'
p2299
aS' OPN '
p2300
aS'-58'
p2301
ag17
aS' NYU-ROAM3'
p2302
asg19
g10
sg20
I-58
sg21
g2292
sg22
S'OPN'
p2303
sg24
S'2014-02-25 02:07:36'
p2304
sg26
I01
sg27
g17
sg28
(dp2305
g19
g10
sg30
g2292
sg31
I-58
sg32
(lp2306
g2297
ag2298
asg34
g2302
sg35
I54
ssg36
g2298
sg37
(lp2307
g39
asg40
I54
sg41
I1
sg42
S'NYU-ROAM3'
p2308
sbsS'04:C5:A4:C2:28:82'
p2309
g2
(g3
g4
Ntp2310
Rp2311
(dp2312
g8
(lp2313
g10
ag2309
aS' 2014-02-25 02:25:01'
p2314
aS'2014-02-25 02:25:39'
p2315
ag13
aS'54'
p2316
aS' OPN '
p2317
aS'-76'
p2318
ag17
aS' NYU-ROAM3'
p2319
asg19
g10
sg20
I-76
sg21
g2309
sg22
S'OPN'
p2320
sg24
S'2014-02-25 02:25:01'
p2321
sg26
I01
sg27
g17
sg28
(dp2322
g19
g10
sg30
g2309
sg31
I-76
sg32
(lp2323
g2314
ag2315
asg34
g2319
sg35
I54
ssg36
g2315
sg37
(lp2324
g39
asg40
I54
sg41
I1
sg42
S'NYU-ROAM3'
p2325
sbsS'04:C5:A4:C2:28:80'
p2326
g2
(g3
g4
Ntp2327
Rp2328
(dp2329
g8
(lp2330
g10
ag2326
aS' 2014-02-25 02:25:39'
p2331
aS'2014-02-25 02:26:07'
p2332
ag13
aS'54'
p2333
aS' WPA2WPA '
p2334
aS'-72'
p2335
ag17
aS' nyu'
p2336
asg19
g10
sg20
I-72
sg21
g2326
sg22
S'WPA2WPA'
p2337
sg24
S'2014-02-25 02:25:39'
p2338
sg26
I01
sg27
g17
sg28
(dp2339
g19
g10
sg30
g2326
sg31
I-72
sg32
(lp2340
g2331
ag2332
asg34
g2336
sg35
I54
ssg36
g2332
sg37
(lp2341
g39
asg40
I54
sg41
I1
sg42
S'nyu'
p2342
sbsS'00:1E:31:C2:E1:B6'
p2343
g2
(g3
g4
Ntp2344
Rp2345
(dp2346
g8
(lp2347
g10
ag2343
aS' 2014-02-25 02:25:16'
p2348
aS'2014-02-25 02:25:17'
p2349
ag1861
aS'54'
p2350
aS' WPA2'
p2351
aS'-83'
p2352
ag17
aS' Faith'
p2353
asg19
g10
sg20
I-83
sg21
g2343
sg22
S'WPA2'
p2354
sg24
S'2014-02-25 02:25:16'
p2355
sg26
I01
sg27
g17
sg28
(dp2356
g19
g10
sg30
g2343
sg31
I-83
sg32
(lp2357
g2348
ag2349
asg34
g2353
sg35
I54
ssg36
g2349
sg37
(lp2358
g39
asg40
I54
sg41
I4
sg42
S'Faith'
p2359
sbsS'08:BD:43:FE:65:A9'
p2360
g2
(g3
g4
Ntp2361
Rp2362
(dp2363
g8
(lp2364
g10
ag2360
aS' 2014-03-02 23:42:24'
p2365
aS'2014-03-02 23:50:08'
p2366
aS'11'
p2367
aS'54'
p2368
aS' WPA2'
p2369
aS'-88'
p2370
ag17
aS' abcdefG'
p2371
asg19
g10
sg20
I-88
sg21
g2360
sg22
g2369
sg24
g2365
sg26
I01
sg27
g17
sg28
(dp2372
g19
g10
sg30
g2360
sg31
I-88
sg32
g2366
sg34
S' abcdefG'
p2373
sg35
I54
ssg36
g2366
sg37
g73
sg40
I54
sg41
I11
sg42
g2371
sbsS'46:94:FC:40:A9:CD'
p2374
g2
(g3
g4
Ntp2375
Rp2376
(dp2377
g8
(lp2378
g10
ag2374
aS' 2014-02-25 02:09:48'
p2379
aS'2014-02-25 02:30:55'
p2380
ag51
aS'54'
p2381
aS' WPA2'
p2382
aS'-83'
p2383
ag17
aS" Perri'sCrib-Guest"
p2384
asg19
g10
sg20
I-83
sg21
g2374
sg22
S'WPA2'
p2385
sg24
S'2014-02-25 02:09:48'
p2386
sg26
I01
sg27
g17
sg28
(dp2387
g19
g10
sg30
g2374
sg31
I-83
sg32
(lp2388
g2379
ag2380
asg34
g2384
sg35
I54
ssg36
g2380
sg37
(lp2389
g39
asg40
I54
sg41
I6
sg42
S"Perri'sCrib-Guest"
p2390
sbsS'74:46:A0:6E:E2:04'
p2391
g2
(g3
g4
Ntp2392
Rp2393
(dp2394
g8
(lp2395
g10
ag2391
aS' 2014-02-25 02:10:09'
p2396
aS'2014-02-25 02:19:45'
p2397
ag1294
aS'54'
p2398
aS' OPN '
p2399
aS'-90'
p2400
ag17
aS' HP-Print-04-ENVY 120 series'
p2401
asg19
g10
sg20
I-90
sg21
g2391
sg22
S'OPN'
p2402
sg24
S'2014-02-25 02:10:09'
p2403
sg26
I01
sg27
g17
sg28
(dp2404
g19
g10
sg30
g2391
sg31
I-90
sg32
(lp2405
g2396
ag2397
asg34
g2401
sg35
I54
ssg36
g2397
sg37
(lp2406
g39
asg40
I54
sg41
I7
sg42
S'HP-Print-04-ENVY 120 series'
p2407
sbsS'4C:60:DE:2B:E2:D9'
p2408
g2
(g3
g4
Ntp2409
Rp2410
(dp2411
g8
(lp2412
g10
ag2408
aS' 2014-03-02 23:00:40'
p2413
aS'2014-03-02 23:29:08'
p2414
ag51
aS'54'
p2415
aS' WPA2WPA '
p2416
aS'-89'
p2417
ag17
aS' Emoney'
p2418
asg19
g10
sg20
I-89
sg21
g2408
sg22
S'WPA2WPA'
p2419
sg24
S'2014-03-02 23:00:40'
p2420
sg26
I01
sg27
g17
sg28
(dp2421
g19
g10
sg30
g2408
sg31
I-89
sg32
(lp2422
g2413
ag2414
asg34
g2418
sg35
I54
ssg36
g2414
sg37
(lp2423
g39
asg40
I54
sg41
I6
sg42
S'Emoney'
p2424
sbsS'10:8C:CF:76:1C:21'
p2425
g2
(g3
g4
Ntp2426
Rp2427
(dp2428
g8
(lp2429
g10
ag2425
aS' 2014-02-25 02:25:08'
p2430
aS'2014-02-25 02:25:18'
p2431
aS'11'
p2432
aS'54'
p2433
aS' OPN '
p2434
aS'-73'
p2435
ag17
aS' nyuguest'
p2436
asg19
g10
sg20
I-73
sg21
g2425
sg22
S'OPN'
p2437
sg24
S'2014-02-25 02:25:08'
p2438
sg26
I01
sg27
g17
sg28
(dp2439
g19
g10
sg30
g2425
sg31
I-73
sg32
(lp2440
g2430
ag2431
asg34
g2436
sg35
I54
ssg36
g2431
sg37
(lp2441
g39
asg40
I54
sg41
I11
sg42
S'nyuguest'
p2442
sbsS'00:1B:63:22:C0:53'
p2443
g2
(g3
g4
Ntp2444
Rp2445
(dp2446
g8
(lp2447
g10
ag2443
aS' 2014-02-25 02:26:45'
p2448
aS'2014-02-25 02:28:35'
p2449
aS'108'
p2450
aS'-1'
p2451
aS' WPA '
p2452
aS'-128'
p2453
ag17
ag73
asg19
g10
sg20
I-128
sg21
g2443
sg22
S'WPA'
p2454
sg24
S'2014-02-25 02:26:45'
p2455
sg26
I01
sg27
g17
sg28
(dp2456
g19
g10
sg30
g2443
sg31
I-128
sg32
(lp2457
g2448
ag2449
asg34
g73
sg35
I-1
ssg36
g2449
sg37
(lp2458
g39
asg40
I-1
sg41
I108
sg42
g39
sbsS'24:01:C7:87:0D:22'
p2459
g2
(g3
g4
Ntp2460
Rp2461
(dp2462
g8
(lp2463
g10
ag2459
aS' 2014-03-02 23:42:15'
p2464
aS'2014-03-02 23:58:15'
p2465
ag13
aS'54'
p2466
aS' OPN '
p2467
aS'-70'
p2468
ag17
aS' TWCWiFi'
p2469
asg19
g10
sg20
I-70
sg21
g2459
sg22
g2467
sg24
g2464
sg26
I01
sg27
g17
sg28
(dp2470
g19
g10
sg30
g2459
sg31
I-70
sg32
g2465
sg34
S' TWCWiFi'
p2471
sg35
I54
ssg36
g2465
sg37
g73
sg40
I54
sg41
I1
sg42
g2469
sbsS'10:8C:CF:76:1C:23'
p2472
g2
(g3
g4
Ntp2473
Rp2474
(dp2475
g8
(lp2476
g10
ag2472
aS' 2014-02-25 02:25:08'
p2477
aS'2014-02-25 02:25:18'
p2478
aS'11'
p2479
aS'54'
p2480
aS' OPN '
p2481
aS'-77'
p2482
ag17
aS' nyupda'
p2483
asg19
g10
sg20
I-77
sg21
g2472
sg22
S'OPN'
p2484
sg24
S'2014-02-25 02:25:08'
p2485
sg26
I01
sg27
g17
sg28
(dp2486
g19
g10
sg30
g2472
sg31
I-77
sg32
(lp2487
g2477
ag2478
asg34
g2483
sg35
I54
ssg36
g2478
sg37
(lp2488
g39
asg40
I54
sg41
I11
sg42
S'nyupda'
p2489
sbsS'48:F8:B3:3A:43:62'
p2490
g2
(g3
g4
Ntp2491
Rp2492
(dp2493
g8
(lp2494
g10
ag2490
aS' 2014-02-25 02:15:27'
p2495
aS'2014-02-25 02:27:35'
p2496
ag13
aS'54'
p2497
aS' WPA2WPA '
p2498
aS'-89'
p2499
ag17
aS' Camery'
p2500
asg19
g10
sg20
I-89
sg21
g2490
sg22
S'WPA2WPA'
p2501
sg24
S'2014-02-25 02:15:27'
p2502
sg26
I01
sg27
g17
sg28
(dp2503
g19
g10
sg30
g2490
sg31
I-89
sg32
(lp2504
g2495
ag2496
asg34
g2500
sg35
I54
ssg36
g2496
sg37
(lp2505
g39
asg40
I54
sg41
I1
sg42
S'Camery'
p2506
sbsS'84:1B:5E:E9:D2:16'
p2507
g2
(g3
g4
Ntp2508
Rp2509
(dp2510
g8
(lp2511
g10
ag2507
aS' 2014-03-02 23:42:25'
p2512
aS'2014-03-02 23:58:24'
p2513
aS'11'
p2514
aS'54'
p2515
aS' WPA2WPA '
p2516
aS'-90'
p2517
ag17
aS' QuattroDelta'
p2518
asg19
g10
sg20
I-90
sg21
g2507
sg22
g2516
sg24
g2512
sg26
I01
sg27
g17
sg28
(dp2519
g19
g10
sg30
g2507
sg31
I-90
sg32
g2513
sg34
S' QuattroDelta'
p2520
sg35
I54
ssg36
g2513
sg37
g73
sg40
I54
sg41
I11
sg42
g2518
sbsS'00:14:BF:F7:BC:37'
p2521
g2
(g3
g4
Ntp2522
Rp2523
(dp2524
g8
(lp2525
g10
ag2521
aS' 2014-02-25 02:08:01'
p2526
aS'2014-02-25 02:30:55'
p2527
ag51
aS'54'
p2528
aS' WPA2'
p2529
aS'-85'
p2530
ag17
aS' pfnet'
p2531
asg19
g10
sg20
I-85
sg21
g2521
sg22
S'WPA2'
p2532
sg24
S'2014-02-25 02:08:01'
p2533
sg26
I01
sg27
g17
sg28
(dp2534
g19
g10
sg30
g2521
sg31
I-85
sg32
(lp2535
g2526
ag2527
asg34
g2531
sg35
I54
ssg36
g2527
sg37
(lp2536
g39
asg40
I54
sg41
I6
sg42
S'pfnet'
p2537
sbsS'00:3A:98:2B:FD:01'
p2538
g2
(g3
g4
Ntp2539
Rp2540
(dp2541
g8
(lp2542
g10
ag2538
aS' 2014-02-25 02:07:41'
p2543
aS'2014-02-25 02:31:16'
p2544
aS'11'
p2545
aS'54'
p2546
aS' WPA '
p2547
aS'-47'
p2548
ag17
aS' itpsandbox-test'
p2549
asg19
g10
sg20
I-47
sg21
g2538
sg22
S'WPA'
p2550
sg24
S'2014-02-25 02:07:41'
p2551
sg26
I01
sg27
g17
sg28
(dp2552
g19
g10
sg30
g2538
sg31
I-47
sg32
(lp2553
g2543
ag2544
asg34
g2549
sg35
I54
ssg36
g2544
sg37
(lp2554
g39
asg40
I54
sg41
I11
sg42
S'itpsandbox-test'
p2555
sbsS'00:23:97:F3:F6:41'
p2556
g2
(g3
g4
Ntp2557
Rp2558
(dp2559
g8
(lp2560
g10
ag2556
aS' 2014-02-25 02:26:44'
p2561
aS'2014-02-25 02:31:05'
p2562
ag51
aS'54'
p2563
aS' WEP '
p2564
aS'-90'
p2565
ag17
aS' E5AE'
p2566
asg19
g10
sg20
I-90
sg21
g2556
sg22
S'WEP'
p2567
sg24
S'2014-02-25 02:26:44'
p2568
sg26
I01
sg27
g17
sg28
(dp2569
g19
g10
sg30
g2556
sg31
I-90
sg32
(lp2570
g2561
ag2562
asg34
g2566
sg35
I54
ssg36
g2562
sg37
(lp2571
g39
asg40
I54
sg41
I6
sg42
S'E5AE'
p2572
sbsS'F8:E4:FB:D8:CC:A1'
p2573
g2
(g3
g4
Ntp2574
Rp2575
(dp2576
g8
(lp2577
g10
ag2573
aS' 2014-02-25 02:08:03'
p2578
aS'2014-02-25 02:31:17'
p2579
ag13
aS'54'
p2580
aS' WPA2'
p2581
aS'-76'
p2582
ag17
aS' LDL4Q'
p2583
asg19
g10
sg20
I-76
sg21
g2573
sg22
S'WPA2'
p2584
sg24
S'2014-02-25 02:08:03'
p2585
sg26
I01
sg27
g17
sg28
(dp2586
g19
g10
sg30
g2573
sg31
I-76
sg32
(lp2587
g2578
ag2579
asg34
g2583
sg35
I54
ssg36
g2579
sg37
(lp2588
g39
asg40
I54
sg41
I1
sg42
S'LDL4Q'
p2589
sbsS'16:0D:7F:4C:1F:F3'
p2590
g2
(g3
g4
Ntp2591
Rp2592
(dp2593
g8
(lp2594
g10
ag2590
aS' 2014-02-25 02:25:39'
p2595
aS'2014-02-25 02:25:57'
p2596
ag13
aS'54'
p2597
aS' WPA2'
p2598
aS'-80'
p2599
ag17
aS' 627C_EXT'
p2600
asg19
g10
sg20
I-80
sg21
g2590
sg22
S'WPA2'
p2601
sg24
S'2014-02-25 02:25:39'
p2602
sg26
I01
sg27
g17
sg28
(dp2603
g19
g10
sg30
g2590
sg31
I-80
sg32
(lp2604
g2595
ag2596
asg34
g2600
sg35
I54
ssg36
g2596
sg37
(lp2605
g39
asg40
I54
sg41
I1
sg42
S'627C_EXT'
p2606
sbsS'CC:A4:62:44:01:A0'
p2607
g2
(g3
g4
Ntp2608
Rp2609
(dp2610
g8
(lp2611
g10
ag2607
aS' 2014-02-25 02:08:02'
p2612
aS'2014-02-25 02:31:05'
p2613
ag51
aS'54'
p2614
aS' WPA2'
p2615
aS'-88'
p2616
ag17
aS' DG860AA2'
p2617
asg19
g10
sg20
I-88
sg21
g2607
sg22
S'WPA2'
p2618
sg24
S'2014-02-25 02:08:02'
p2619
sg26
I01
sg27
g17
sg28
(dp2620
g19
g10
sg30
g2607
sg31
I-88
sg32
(lp2621
g2612
ag2613
asg34
g2617
sg35
I54
ssg36
g2613
sg37
(lp2622
g39
asg40
I54
sg41
I6
sg42
S'DG860AA2'
p2623
sbsS'48:F8:B3:0D:85:3F'
p2624
g2
(g3
g4
Ntp2625
Rp2626
(dp2627
g8
(lp2628
g10
ag2624
aS' 2014-02-25 02:07:51'
p2629
aS'2014-02-25 02:31:13'
p2630
aS'10'
p2631
aS'54'
p2632
aS' WPA2WPA '
p2633
aS'-80'
p2634
ag17
aS' JBLC7'
p2635
asg19
g10
sg20
I-80
sg21
g2624
sg22
S'WPA2WPA'
p2636
sg24
S'2014-02-25 02:07:51'
p2637
sg26
I01
sg27
g17
sg28
(dp2638
g19
g10
sg30
g2624
sg31
I-80
sg32
(lp2639
g2629
ag2630
asg34
g2635
sg35
I54
ssg36
g2630
sg37
(lp2640
g39
asg40
I54
sg41
I10
sg42
S'JBLC7'
p2641
sbsS'02:1A:11:F9:CC:51'
p2642
g2
(g3
g4
Ntp2643
Rp2644
(dp2645
g8
(lp2646
g10
ag2642
aS' 2014-02-25 02:08:41'
p2647
aS'2014-02-25 02:29:34'
p2648
ag51
aS'54'
p2649
aS' WPA2'
p2650
aS'-77'
p2651
ag17
aS' coworkinisawesome'
p2652
asg19
g10
sg20
I-77
sg21
g2642
sg22
S'WPA2'
p2653
sg24
S'2014-02-25 02:08:41'
p2654
sg26
I01
sg27
g17
sg28
(dp2655
g19
g10
sg30
g2642
sg31
I-77
sg32
(lp2656
g2647
ag2648
asg34
g2652
sg35
I54
ssg36
g2648
sg37
(lp2657
g39
asg40
I54
sg41
I6
sg42
S'coworkinisawesome'
p2658
sbsS'04:A1:51:7F:5B:23'
p2659
g2
(g3
g4
Ntp2660
Rp2661
(dp2662
g8
(lp2663
g10
ag2659
aS' 2014-03-02 23:42:52'
p2664
aS'2014-03-02 23:52:24'
p2665
aS'10'
p2666
aS'54'
p2667
aS' WPA2'
p2668
aS'-90'
p2669
ag17
aS' NETGEAR47'
p2670
asg19
g10
sg20
I-90
sg21
g2659
sg22
g2668
sg24
g2664
sg26
I01
sg27
g17
sg28
(dp2671
g19
g10
sg30
g2659
sg31
I-90
sg32
g2665
sg34
S' NETGEAR47'
p2672
sg35
I54
ssg36
g2665
sg37
g73
sg40
I54
sg41
I10
sg42
g2670
sbsS'84:1B:5E:F6:4C:D6'
p2673
g2
(g3
g4
Ntp2674
Rp2675
(dp2676
g8
(lp2677
g10
ag2673
aS' 2014-03-02 23:04:24'
p2678
aS'2014-03-02 23:19:21'
p2679
ag13
aS'54'
p2680
aS' WPA2'
p2681
aS'-91'
p2682
ag17
aS' Virgo'
p2683
asg19
g10
sg20
I-91
sg21
g2673
sg22
S'WPA2'
p2684
sg24
S'2014-03-02 23:04:24'
p2685
sg26
I01
sg27
g17
sg28
(dp2686
g19
g10
sg30
g2673
sg31
I-91
sg32
(lp2687
g2678
ag2679
asg34
g2683
sg35
I54
ssg36
g2679
sg37
(lp2688
g39
asg40
I54
sg41
I1
sg42
S'Virgo'
p2689
sbsS'C8:D7:19:CB:40:3E'
p2690
g2
(g3
g4
Ntp2691
Rp2692
(dp2693
g8
(lp2694
g10
ag2690
aS' 2014-03-02 23:00:14'
p2695
aS'2014-03-02 23:25:58'
p2696
ag13
aS'54'
p2697
aS' WPA2WPA '
p2698
aS'-90'
p2699
ag17
aS' jhc'
p2700
asg19
g10
sg20
I-90
sg21
g2690
sg22
S'WPA2WPA'
p2701
sg24
S'2014-03-02 23:00:14'
p2702
sg26
I01
sg27
g17
sg28
(dp2703
g19
g10
sg30
g2690
sg31
I-90
sg32
(lp2704
g2695
ag2696
asg34
g2700
sg35
I54
ssg36
g2696
sg37
(lp2705
g39
asg40
I54
sg41
I1
sg42
S'jhc'
p2706
sbsS'48:F8:B3:52:79:77'
p2707
g2
(g3
g4
Ntp2708
Rp2709
(dp2710
g8
(lp2711
g10
ag2707
aS' 2014-02-25 02:07:41'
p2712
aS'2014-02-25 02:31:13'
p2713
aS'11'
p2714
aS'54'
p2715
aS' WPA2'
p2716
aS'-78'
p2717
ag17
aS' SHU RFR'
p2718
asg19
g10
sg20
I-78
sg21
g2707
sg22
S'WPA2'
p2719
sg24
S'2014-02-25 02:07:41'
p2720
sg26
I01
sg27
g17
sg28
(dp2721
g19
g10
sg30
g2707
sg31
I-78
sg32
(lp2722
g2712
ag2713
asg34
g2718
sg35
I54
ssg36
g2713
sg37
(lp2723
g39
asg40
I54
sg41
I11
sg42
S'SHU RFR'
p2724
sbsS'00:22:3F:91:3A:C7'
p2725
g2
(g3
g4
Ntp2726
Rp2727
(dp2728
g8
(lp2729
g10
ag2725
aS' 2014-03-02 23:01:57'
p2730
aS'2014-03-02 23:26:16'
p2731
ag51
aS'54'
p2732
aS' WPA '
p2733
aS'-91'
p2734
ag17
aS' VALENS'
p2735
asg19
g10
sg20
I-91
sg21
g2725
sg22
S'WPA'
p2736
sg24
S'2014-03-02 23:01:57'
p2737
sg26
I01
sg27
g17
sg28
(dp2738
g19
g10
sg30
g2725
sg31
I-91
sg32
(lp2739
g2730
ag2731
asg34
g2735
sg35
I54
ssg36
g2731
sg37
(lp2740
g39
asg40
I54
sg41
I6
sg42
S'VALENS'
p2741
sbsS'B8:76:3F:09:F5:E5'
p2742
g2
(g3
g4
Ntp2743
Rp2744
(dp2745
g8
(lp2746
g10
ag2742
aS' 2014-02-25 02:09:49'
p2747
aS'2014-02-25 02:24:15'
p2748
ag13
aS'54'
p2749
aS' WPA2'
p2750
aS'-84'
p2751
ag17
aS' DVW3201B88'
p2752
asg19
g10
sg20
I-84
sg21
g2742
sg22
S'WPA2'
p2753
sg24
S'2014-02-25 02:09:49'
p2754
sg26
I01
sg27
g17
sg28
(dp2755
g19
g10
sg30
g2742
sg31
I-84
sg32
(lp2756
g2747
ag2748
asg34
g2752
sg35
I54
ssg36
g2748
sg37
(lp2757
g39
asg40
I54
sg41
I1
sg42
S'DVW3201B88'
p2758
sbsS'1C:C6:3C:1B:1C:04'
p2759
g2
(g3
g4
Ntp2760
Rp2761
(dp2762
g8
(lp2763
g10
ag2759
aS' 2014-02-25 02:10:26'
p2764
aS'2014-02-25 02:19:52'
p2765
aS'11'
p2766
aS'54'
p2767
aS' WPA2WPA '
p2768
aS'-87'
p2769
ag17
aS' BAUM'
p2770
asg19
g10
sg20
I-87
sg21
g2759
sg22
S'WPA2WPA'
p2771
sg24
S'2014-02-25 02:10:26'
p2772
sg26
I01
sg27
g17
sg28
(dp2773
g19
g10
sg30
g2759
sg31
I-87
sg32
(lp2774
g2764
ag2765
asg34
g2770
sg35
I54
ssg36
g2765
sg37
(lp2775
g39
asg40
I54
sg41
I11
sg42
S'BAUM'
p2776
sbsS'9C:2A:70:4D:7B:E1'
p2777
g2
(g3
g4
Ntp2778
Rp2779
(dp2780
g8
(lp2781
g10
ag2777
aS' 2014-02-25 02:07:51'
p2782
aS'2014-02-25 02:30:34'
p2783
aS'11'
p2784
aS'54'
p2785
aS' WPA2'
p2786
aS'-85'
p2787
ag17
aS' DVW3201B4C'
p2788
asg19
g10
sg20
I-85
sg21
g2777
sg22
S'WPA2'
p2789
sg24
S'2014-02-25 02:07:51'
p2790
sg26
I01
sg27
g17
sg28
(dp2791
g19
g10
sg30
g2777
sg31
I-85
sg32
(lp2792
g2782
ag2783
asg34
g2788
sg35
I54
ssg36
g2783
sg37
(lp2793
g39
asg40
I54
sg41
I11
sg42
S'DVW3201B4C'
p2794
sbsS'84:1B:5E:CF:9E:92'
p2795
g2
(g3
g4
Ntp2796
Rp2797
(dp2798
g8
(lp2799
g10
ag2795
aS' 2014-02-25 02:07:43'
p2800
aS'2014-02-25 02:31:16'
p2801
aS'11'
p2802
aS'54'
p2803
aS' WPA2'
p2804
aS'-79'
p2805
ag17
aS' TSIG CONFERENCE RM2.4'
p2806
asg19
g10
sg20
I-79
sg21
g2795
sg22
S'WPA2'
p2807
sg24
S'2014-02-25 02:07:43'
p2808
sg26
I01
sg27
g17
sg28
(dp2809
g19
g10
sg30
g2795
sg31
I-79
sg32
(lp2810
g2800
ag2801
asg34
g2806
sg35
I54
ssg36
g2801
sg37
(lp2811
g39
asg40
I54
sg41
I11
sg42
S'TSIG CONFERENCE RM2.4'
p2812
sbsS'0C:D5:02:1A:0C:B6'
p2813
g2
(g3
g4
Ntp2814
Rp2815
(dp2816
g8
(lp2817
g10
ag2813
aS' 2014-02-25 02:07:47'
p2818
aS'2014-02-25 02:30:31'
p2819
ag239
aS'54'
p2820
aS' WEP '
p2821
aS'-86'
p2822
ag17
aS' 10FX08204422'
p2823
asg19
g10
sg20
I-86
sg21
g2813
sg22
S'WEP'
p2824
sg24
S'2014-02-25 02:07:47'
p2825
sg26
I01
sg27
g17
sg28
(dp2826
g19
g10
sg30
g2813
sg31
I-86
sg32
(lp2827
g2818
ag2819
asg34
g2823
sg35
I54
ssg36
g2819
sg37
(lp2828
g39
asg40
I54
sg41
I9
sg42
S'10FX08204422'
p2829
sbsS'04:C5:A4:92:4D:21'
p2830
g2
(g3
g4
Ntp2831
Rp2832
(dp2833
g8
(lp2834
g10
ag2830
aS' 2014-02-25 02:07:43'
p2835
aS'2014-02-25 02:31:14'
p2836
aS'11'
p2837
aS'54'
p2838
aS' OPN '
p2839
aS'-78'
p2840
ag17
aS' nyuguest'
p2841
asg19
g10
sg20
I-78
sg21
g2830
sg22
S'OPN'
p2842
sg24
S'2014-02-25 02:07:43'
p2843
sg26
I01
sg27
g17
sg28
(dp2844
g19
g10
sg30
g2830
sg31
I-78
sg32
(lp2845
g2835
ag2836
asg34
g2841
sg35
I54
ssg36
g2836
sg37
(lp2846
g39
asg40
I54
sg41
I11
sg42
S'nyuguest'
p2847
sbsS'04:C5:A4:92:4D:20'
p2848
g2
(g3
g4
Ntp2849
Rp2850
(dp2851
g8
(lp2852
g10
ag2848
aS' 2014-02-25 02:08:40'
p2853
aS'2014-02-25 02:31:15'
p2854
aS'11'
p2855
aS'54'
p2856
aS' WPA2WPA '
p2857
aS'-93'
p2858
ag17
aS' nyu'
p2859
asg19
g10
sg20
I-93
sg21
g2848
sg22
S'WPA2WPA'
p2860
sg24
S'2014-02-25 02:08:40'
p2861
sg26
I01
sg27
g17
sg28
(dp2862
g19
g10
sg30
g2848
sg31
I-93
sg32
(lp2863
g2853
ag2854
asg34
g2859
sg35
I54
ssg36
g2854
sg37
(lp2864
g39
asg40
I54
sg41
I11
sg42
S'nyu'
p2865
sbsS'04:C5:A4:92:4D:23'
p2866
g2
(g3
g4
Ntp2867
Rp2868
(dp2869
g8
(lp2870
g10
ag2866
aS' 2014-02-25 02:24:29'
p2871
aS'2014-02-25 02:31:04'
p2872
aS'11'
p2873
aS'54'
p2874
aS' OPN '
p2875
aS'-83'
p2876
ag17
aS' nyupda'
p2877
asg19
g10
sg20
I-83
sg21
g2866
sg22
S'OPN'
p2878
sg24
S'2014-02-25 02:24:29'
p2879
sg26
I01
sg27
g17
sg28
(dp2880
g19
g10
sg30
g2866
sg31
I-83
sg32
(lp2881
g2871
ag2872
asg34
g2877
sg35
I54
ssg36
g2872
sg37
(lp2882
g39
asg40
I54
sg41
I11
sg42
S'nyupda'
p2883
sbsS'04:C5:A4:92:4D:22'
p2884
g2
(g3
g4
Ntp2885
Rp2886
(dp2887
g8
(lp2888
g10
ag2884
aS' 2014-02-25 02:07:43'
p2889
aS'2014-02-25 02:29:43'
p2890
aS'11'
p2891
aS'54'
p2892
aS' OPN '
p2893
aS'-81'
p2894
ag17
aS' NYU-ROAM3'
p2895
asg19
g10
sg20
I-81
sg21
g2884
sg22
S'OPN'
p2896
sg24
S'2014-02-25 02:07:43'
p2897
sg26
I01
sg27
g17
sg28
(dp2898
g19
g10
sg30
g2884
sg31
I-81
sg32
(lp2899
g2889
ag2890
asg34
g2895
sg35
I54
ssg36
g2890
sg37
(lp2900
g39
asg40
I54
sg41
I11
sg42
S'NYU-ROAM3'
p2901
sbsS'3E:8C:F8:CD:8C:DF'
p2902
g2
(g3
g4
Ntp2903
Rp2904
(dp2905
g8
(lp2906
g10
ag2902
aS' 2014-02-25 02:07:35'
p2907
aS'2014-02-25 02:30:56'
p2908
ag13
aS'54'
p2909
aS' OPN '
p2910
aS'-128'
p2911
ag17
aS' HP77BFF4'
p2912
asg19
g10
sg20
I-128
sg21
g2902
sg22
S'OPN'
p2913
sg24
S'2014-02-25 02:07:35'
p2914
sg26
I01
sg27
g17
sg28
(dp2915
g19
g10
sg30
g2902
sg31
I-128
sg32
(lp2916
g2907
ag2908
asg34
g2912
sg35
I54
ssg36
g2908
sg37
(lp2917
g39
asg40
I54
sg41
I1
sg42
S'HP77BFF4'
p2918
sbsS'44:94:FC:54:2F:9E'
p2919
g2
(g3
g4
Ntp2920
Rp2921
(dp2922
g8
(lp2923
g10
ag2919
aS' 2014-03-02 23:00:11'
p2924
aS'2014-03-02 23:21:40'
p2925
aS'11'
p2926
aS'54'
p2927
aS' WPA2WPA '
p2928
aS'-89'
p2929
ag17
aS' 542F9F'
p2930
asg19
g10
sg20
I-89
sg21
g2919
sg22
S'WPA2WPA'
p2931
sg24
S'2014-03-02 23:00:11'
p2932
sg26
I01
sg27
g17
sg28
(dp2933
g19
g10
sg30
g2919
sg31
I-89
sg32
(lp2934
g2924
ag2925
asg34
g2930
sg35
I54
ssg36
g2925
sg37
(lp2935
g39
asg40
I54
sg41
I11
sg42
S'542F9F'
p2936
sbsS'00:3A:98:36:82:70'
p2937
g2
(g3
g4
Ntp2938
Rp2939
(dp2940
g8
(lp2941
g10
ag2937
aS' 2014-02-25 02:07:36'
p2942
aS'2014-02-25 02:31:17'
p2943
ag51
aS'54'
p2944
aS' WPA '
p2945
aS'-74'
p2946
ag17
aS' itpsandbox'
p2947
asg19
g10
sg20
I-74
sg21
g2937
sg22
S'WPA'
p2948
sg24
S'2014-02-25 02:07:36'
p2949
sg26
I01
sg27
g17
sg28
(dp2950
g19
g10
sg30
g2937
sg31
I-74
sg32
(lp2951
g2942
ag2943
asg34
g2947
sg35
I54
ssg36
g2943
sg37
(lp2952
g39
asg40
I54
sg41
I6
sg42
S'itpsandbox'
p2953
sbsS'00:3A:98:36:82:71'
p2954
g2
(g3
g4
Ntp2955
Rp2956
(dp2957
g8
(lp2958
g10
ag2954
aS' 2014-02-25 02:07:43'
p2959
aS'2014-02-25 02:31:17'
p2960
ag51
aS'54'
p2961
aS' WPA '
p2962
aS'-75'
p2963
ag17
aS' itpsandbox-test'
p2964
asg19
g10
sg20
I-75
sg21
g2954
sg22
S'WPA'
p2965
sg24
S'2014-02-25 02:07:43'
p2966
sg26
I01
sg27
g17
sg28
(dp2967
g19
g10
sg30
g2954
sg31
I-75
sg32
(lp2968
g2959
ag2960
asg34
g2964
sg35
I54
ssg36
g2960
sg37
(lp2969
g39
asg40
I54
sg41
I6
sg42
S'itpsandbox-test'
p2970
sbsS'20:C9:D0:1E:48:A9'
p2971
g2
(g3
g4
Ntp2972
Rp2973
(dp2974
g8
(lp2975
g10
ag2971
aS' 2014-02-25 02:25:43'
p2976
aS'2014-02-25 02:26:03'
p2977
aS'10'
p2978
aS'54'
p2979
aS' WPA2'
p2980
aS'-78'
p2981
ag17
aS" RMark's Network"
p2982
asg19
g10
sg20
I-78
sg21
g2971
sg22
S'WPA2'
p2983
sg24
S'2014-02-25 02:25:43'
p2984
sg26
I01
sg27
g17
sg28
(dp2985
g19
g10
sg30
g2971
sg31
I-78
sg32
(lp2986
g2976
ag2977
asg34
g2982
sg35
I54
ssg36
g2977
sg37
(lp2987
g39
asg40
I54
sg41
I10
sg42
S"RMark's Network"
p2988
sbsS'C0:C1:C0:11:A9:BC'
p2989
g2
(g3
g4
Ntp2990
Rp2991
(dp2992
g8
(lp2993
g10
ag2989
aS' 2014-02-25 02:08:03'
p2994
aS'2014-02-25 02:26:26'
p2995
ag13
aS'54'
p2996
aS' WPA2WPA '
p2997
aS'-82'
p2998
ag17
aS' jmcguirl'
p2999
asg19
g10
sg20
I-82
sg21
g2989
sg22
S'WPA2WPA'
p3000
sg24
S'2014-02-25 02:08:03'
p3001
sg26
I01
sg27
g17
sg28
(dp3002
g19
g10
sg30
g2989
sg31
I-82
sg32
(lp3003
g2994
ag2995
asg34
g2999
sg35
I54
ssg36
g2995
sg37
(lp3004
g39
asg40
I54
sg41
I1
sg42
S'jmcguirl'
p3005
sbsS'68:BC:0C:F9:B0:41'
p3006
g2
(g3
g4
Ntp3007
Rp3008
(dp3009
g8
(lp3010
g10
ag3006
aS' 2014-02-25 02:25:47'
p3011
aS'2014-02-25 02:25:56'
p3012
ag51
aS'54'
p3013
aS' OPN '
p3014
aS'-73'
p3015
ag17
aS' nyuguest'
p3016
asg19
g10
sg20
I-73
sg21
g3006
sg22
S'OPN'
p3017
sg24
S'2014-02-25 02:25:47'
p3018
sg26
I01
sg27
g17
sg28
(dp3019
g19
g10
sg30
g3006
sg31
I-73
sg32
(lp3020
g3011
ag3012
asg34
g3016
sg35
I54
ssg36
g3012
sg37
(lp3021
g39
asg40
I54
sg41
I6
sg42
S'nyuguest'
p3022
sbsS'68:BC:0C:F9:B0:43'
p3023
g2
(g3
g4
Ntp3024
Rp3025
(dp3026
g8
(lp3027
g10
ag3023
aS' 2014-02-25 02:25:47'
p3028
aS'2014-02-25 02:25:56'
p3029
ag51
aS'54'
p3030
aS' OPN '
p3031
aS'-73'
p3032
ag17
aS' nyupda'
p3033
asg19
g10
sg20
I-73
sg21
g3023
sg22
S'OPN'
p3034
sg24
S'2014-02-25 02:25:47'
p3035
sg26
I01
sg27
g17
sg28
(dp3036
g19
g10
sg30
g3023
sg31
I-73
sg32
(lp3037
g3028
ag3029
asg34
g3033
sg35
I54
ssg36
g3029
sg37
(lp3038
g39
asg40
I54
sg41
I6
sg42
S'nyupda'
p3039
sbsS'00:1F:90:CA:DB:7C'
p3040
g2
(g3
g4
Ntp3041
Rp3042
(dp3043
g8
(lp3044
g10
ag3040
aS' 2014-03-02 23:03:46'
p3045
aS'2014-03-02 23:26:18'
p3046
ag13
aS'54'
p3047
aS' WEP '
p3048
aS'-89'
p3049
ag17
aS' N6865'
p3050
asg19
g10
sg20
I-89
sg21
g3040
sg22
S'WEP'
p3051
sg24
S'2014-03-02 23:03:46'
p3052
sg26
I01
sg27
g17
sg28
(dp3053
g19
g10
sg30
g3040
sg31
I-89
sg32
(lp3054
g3045
ag3046
asg34
g3050
sg35
I54
ssg36
g3046
sg37
(lp3055
g39
asg40
I54
sg41
I1
sg42
S'N6865'
p3056
sbsS'00:4F:69:70:0E:05'
p3057
g2
(g3
g4
Ntp3058
Rp3059
(dp3060
g8
(lp3061
g10
ag3057
aS' 2014-02-25 02:07:41'
p3062
aS'2014-02-25 02:31:12'
p3063
ag239
aS'54'
p3064
aS' WPA2'
p3065
aS'-82'
p3066
ag17
aS' nw_10B'
p3067
asg19
g10
sg20
I-82
sg21
g3057
sg22
S'WPA2'
p3068
sg24
S'2014-02-25 02:07:41'
p3069
sg26
I01
sg27
g17
sg28
(dp3070
g19
g10
sg30
g3057
sg31
I-82
sg32
(lp3071
g3062
ag3063
asg34
g3067
sg35
I54
ssg36
g3063
sg37
(lp3072
g39
asg40
I54
sg41
I9
sg42
S'nw_10B'
p3073
sbsS'74:44:01:85:6A:DA'
p3074
g2
(g3
g4
Ntp3075
Rp3076
(dp3077
g8
(lp3078
g10
ag3074
aS' 2014-03-02 23:43:10'
p3079
aS'2014-03-02 23:53:02'
p3080
ag1861
aS'54'
p3081
aS' WPA2'
p3082
aS'-89'
p3083
ag17
aS' NETGEAR93'
p3084
asg19
g10
sg20
I-89
sg21
g3074
sg22
g3082
sg24
g3079
sg26
I01
sg27
g17
sg28
(dp3085
g19
g10
sg30
g3074
sg31
I-89
sg32
g3080
sg34
S' NETGEAR93'
p3086
sg35
I54
ssg36
g3080
sg37
g73
sg40
I54
sg41
I4
sg42
g3084
sbsS'04:C5:A4:81:E3:83'
p3087
g2
(g3
g4
Ntp3088
Rp3089
(dp3090
g8
(lp3091
g10
ag3087
aS' 2014-02-25 02:22:53'
p3092
aS'2014-02-25 02:26:05'
p3093
ag51
aS'54'
p3094
aS' OPN '
p3095
aS'-70'
p3096
ag17
aS' nyupda'
p3097
asg19
g10
sg20
I-70
sg21
g3087
sg22
S'OPN'
p3098
sg24
S'2014-02-25 02:22:53'
p3099
sg26
I01
sg27
g17
sg28
(dp3100
g19
g10
sg30
g3087
sg31
I-70
sg32
(lp3101
g3092
ag3093
asg34
g3097
sg35
I54
ssg36
g3093
sg37
(lp3102
g39
asg40
I54
sg41
I6
sg42
S'nyupda'
p3103
sbsS'04:C5:A4:81:E3:82'
p3104
g2
(g3
g4
Ntp3105
Rp3106
(dp3107
g8
(lp3108
g10
ag3104
aS' 2014-02-25 02:25:37'
p3109
aS'2014-02-25 02:26:05'
p3110
ag51
aS'54'
p3111
aS' OPN '
p3112
aS'-72'
p3113
ag17
aS' NYU-ROAM3'
p3114
asg19
g10
sg20
I-72
sg21
g3104
sg22
S'OPN'
p3115
sg24
S'2014-02-25 02:25:37'
p3116
sg26
I01
sg27
g17
sg28
(dp3117
g19
g10
sg30
g3104
sg31
I-72
sg32
(lp3118
g3109
ag3110
asg34
g3114
sg35
I54
ssg36
g3110
sg37
(lp3119
g39
asg40
I54
sg41
I6
sg42
S'NYU-ROAM3'
p3120
sbsS'04:C5:A4:81:E3:81'
p3121
g2
(g3
g4
Ntp3122
Rp3123
(dp3124
g8
(lp3125
g10
ag3121
aS' 2014-02-25 02:25:00'
p3126
aS'2014-02-25 02:26:05'
p3127
ag51
aS'54'
p3128
aS' OPN '
p3129
aS'-78'
p3130
ag17
aS' nyuguest'
p3131
asg19
g10
sg20
I-78
sg21
g3121
sg22
S'OPN'
p3132
sg24
S'2014-02-25 02:25:00'
p3133
sg26
I01
sg27
g17
sg28
(dp3134
g19
g10
sg30
g3121
sg31
I-78
sg32
(lp3135
g3126
ag3127
asg34
g3131
sg35
I54
ssg36
g3127
sg37
(lp3136
g39
asg40
I54
sg41
I6
sg42
S'nyuguest'
p3137
sbsS'04:C5:A4:81:E3:80'
p3138
g2
(g3
g4
Ntp3139
Rp3140
(dp3141
g8
(lp3142
g10
ag3138
aS' 2014-02-25 02:21:55'
p3143
aS'2014-02-25 02:26:05'
p3144
ag51
aS'54'
p3145
aS' WPA2WPA OPN '
p3146
aS'-68'
p3147
ag17
aS' nyu'
p3148
asg19
g10
sg20
I-68
sg21
g3138
sg22
S'WPA2WPA OPN'
p3149
sg24
S'2014-02-25 02:21:55'
p3150
sg26
I01
sg27
g17
sg28
(dp3151
g19
g10
sg30
g3138
sg31
I-68
sg32
(lp3152
g3143
ag3144
asg34
g3148
sg35
I54
ssg36
g3144
sg37
(lp3153
g39
asg40
I54
sg41
I6
sg42
S'nyu'
p3154
sbsS'04:C5:A4:92:59:31'
p3155
g2
(g3
g4
Ntp3156
Rp3157
(dp3158
g8
(lp3159
g10
ag3155
aS' 2014-02-25 02:07:43'
p3160
aS'2014-02-25 02:31:15'
p3161
aS'11'
p3162
aS'54'
p3163
aS' OPN '
p3164
aS'-62'
p3165
ag17
aS' nyuguest'
p3166
asg19
g10
sg20
I-62
sg21
g3155
sg22
S'OPN'
p3167
sg24
S'2014-02-25 02:07:43'
p3168
sg26
I01
sg27
g17
sg28
(dp3169
g19
g10
sg30
g3155
sg31
I-62
sg32
(lp3170
g3160
ag3161
asg34
g3166
sg35
I54
ssg36
g3161
sg37
(lp3171
g39
asg40
I54
sg41
I11
sg42
S'nyuguest'
p3172
sbsS'04:C5:A4:92:AB:00'
p3173
g2
(g3
g4
Ntp3174
Rp3175
(dp3176
g8
(lp3177
g10
ag3173
aS' 2014-02-25 02:25:09'
p3178
aS'2014-02-25 02:26:05'
p3179
ag51
aS'54'
p3180
aS' WPA2WPA '
p3181
aS'-73'
p3182
ag17
aS' nyu'
p3183
asg19
g10
sg20
I-73
sg21
g3173
sg22
S'WPA2WPA'
p3184
sg24
S'2014-02-25 02:25:09'
p3185
sg26
I01
sg27
g17
sg28
(dp3186
g19
g10
sg30
g3173
sg31
I-73
sg32
(lp3187
g3178
ag3179
asg34
g3183
sg35
I54
ssg36
g3179
sg37
(lp3188
g39
asg40
I54
sg41
I6
sg42
S'nyu'
p3189
sbsS'04:C5:A4:92:AB:01'
p3190
g2
(g3
g4
Ntp3191
Rp3192
(dp3193
g8
(lp3194
g10
ag3190
aS' 2014-02-25 02:25:09'
p3195
aS'2014-02-25 02:26:05'
p3196
ag51
aS'54'
p3197
aS' OPN '
p3198
aS'-74'
p3199
ag17
aS' nyuguest'
p3200
asg19
g10
sg20
I-74
sg21
g3190
sg22
S'OPN'
p3201
sg24
S'2014-02-25 02:25:09'
p3202
sg26
I01
sg27
g17
sg28
(dp3203
g19
g10
sg30
g3190
sg31
I-74
sg32
(lp3204
g3195
ag3196
asg34
g3200
sg35
I54
ssg36
g3196
sg37
(lp3205
g39
asg40
I54
sg41
I6
sg42
S'nyuguest'
p3206
sbsS'04:C5:A4:92:AB:02'
p3207
g2
(g3
g4
Ntp3208
Rp3209
(dp3210
g8
(lp3211
g10
ag3207
aS' 2014-02-25 02:25:09'
p3212
aS'2014-02-25 02:25:09'
p3213
ag51
aS'54'
p3214
aS' OPN '
p3215
aS'-67'
p3216
ag17
aS' NYU-ROAM3'
p3217
asg19
g10
sg20
I-67
sg21
g3207
sg22
S'OPN'
p3218
sg24
S'2014-02-25 02:25:09'
p3219
sg26
I01
sg27
g17
sg28
(dp3220
g19
g10
sg30
g3207
sg31
I-67
sg32
(lp3221
g3212
ag3213
asg34
g3217
sg35
I54
ssg36
g3213
sg37
(lp3222
g39
asg40
I54
sg41
I6
sg42
S'NYU-ROAM3'
p3223
sbsS'04:C5:A4:C2:2F:01'
p3224
g2
(g3
g4
Ntp3225
Rp3226
(dp3227
g8
(lp3228
g10
ag3224
aS' 2014-02-25 02:08:33'
p3229
aS'2014-02-25 02:31:17'
p3230
ag13
aS'54'
p3231
aS' OPN '
p3232
aS'-74'
p3233
ag17
aS' nyuguest'
p3234
asg19
g10
sg20
I-74
sg21
g3224
sg22
S'OPN'
p3235
sg24
S'2014-02-25 02:08:33'
p3236
sg26
I01
sg27
g17
sg28
(dp3237
g19
g10
sg30
g3224
sg31
I-74
sg32
(lp3238
g3229
ag3230
asg34
g3234
sg35
I54
ssg36
g3230
sg37
(lp3239
g39
asg40
I54
sg41
I1
sg42
S'nyuguest'
p3240
sbsS'04:C5:A4:C2:2F:00'
p3241
g2
(g3
g4
Ntp3242
Rp3243
(dp3244
g8
(lp3245
g10
ag3241
aS' 2014-02-25 02:07:35'
p3246
aS'2014-02-25 02:30:56'
p3247
ag13
aS'54'
p3248
aS' WPA2WPA '
p3249
aS'-79'
p3250
ag17
aS' nyu'
p3251
asg19
g10
sg20
I-79
sg21
g3241
sg22
S'WPA2WPA'
p3252
sg24
S'2014-02-25 02:07:35'
p3253
sg26
I01
sg27
g17
sg28
(dp3254
g19
g10
sg30
g3241
sg31
I-79
sg32
(lp3255
g3246
ag3247
asg34
g3251
sg35
I54
ssg36
g3247
sg37
(lp3256
g39
asg40
I54
sg41
I1
sg42
S'nyu'
p3257
sbsS'04:C5:A4:C2:2F:03'
p3258
g2
(g3
g4
Ntp3259
Rp3260
(dp3261
g8
(lp3262
g10
ag3258
aS' 2014-02-25 02:07:35'
p3263
aS'2014-02-25 02:29:55'
p3264
ag13
aS'54'
p3265
aS' OPN '
p3266
aS'-74'
p3267
ag17
aS' nyupda'
p3268
asg19
g10
sg20
I-74
sg21
g3258
sg22
S'OPN'
p3269
sg24
S'2014-02-25 02:07:35'
p3270
sg26
I01
sg27
g17
sg28
(dp3271
g19
g10
sg30
g3258
sg31
I-74
sg32
(lp3272
g3263
ag3264
asg34
g3268
sg35
I54
ssg36
g3264
sg37
(lp3273
g39
asg40
I54
sg41
I1
sg42
S'nyupda'
p3274
sbsS'04:C5:A4:C2:2F:02'
p3275
g2
(g3
g4
Ntp3276
Rp3277
(dp3278
g8
(lp3279
g10
ag3275
aS' 2014-02-25 02:07:35'
p3280
aS'2014-02-25 02:30:46'
p3281
ag13
aS'54'
p3282
aS' OPN '
p3283
aS'-77'
p3284
ag17
aS' NYU-ROAM3'
p3285
asg19
g10
sg20
I-77
sg21
g3275
sg22
S'OPN'
p3286
sg24
S'2014-02-25 02:07:35'
p3287
sg26
I01
sg27
g17
sg28
(dp3288
g19
g10
sg30
g3275
sg31
I-77
sg32
(lp3289
g3280
ag3281
asg34
g3285
sg35
I54
ssg36
g3281
sg37
(lp3290
g39
asg40
I54
sg41
I1
sg42
S'NYU-ROAM3'
p3291
sbsS'00:1D:D4:90:21:C0'
p3292
g2
(g3
g4
Ntp3293
Rp3294
(dp3295
g8
(lp3296
g10
ag3292
aS' 2014-02-25 02:08:17'
p3297
aS'2014-02-25 02:28:40'
p3298
ag239
aS'54'
p3299
aS' WPA2'
p3300
aS'-86'
p3301
ag17
aS' DG860AC2'
p3302
asg19
g10
sg20
I-86
sg21
g3292
sg22
S'WPA2'
p3303
sg24
S'2014-02-25 02:08:17'
p3304
sg26
I01
sg27
g17
sg28
(dp3305
g19
g10
sg30
g3292
sg31
I-86
sg32
(lp3306
g3297
ag3298
asg34
g3302
sg35
I54
ssg36
g3298
sg37
(lp3307
g39
asg40
I54
sg41
I9
sg42
S'DG860AC2'
p3308
sbsS'00:26:B0:FE:2E:21'
p3309
g2
(g3
g4
Ntp3310
Rp3311
(dp3312
g8
(lp3313
g10
ag3309
aS' 2014-02-25 02:17:58'
p3314
aS'2014-02-25 02:31:04'
p3315
aS'11'
p3316
aS'54'
p3317
aS' WPA2WPA '
p3318
aS'-85'
p3319
ag17
aS' Siren Wireless Network'
p3320
asg19
g10
sg20
I-85
sg21
g3309
sg22
S'WPA2WPA'
p3321
sg24
S'2014-02-25 02:17:58'
p3322
sg26
I01
sg27
g17
sg28
(dp3323
g19
g10
sg30
g3309
sg31
I-85
sg32
(lp3324
g3314
ag3315
asg34
g3320
sg35
I54
ssg36
g3315
sg37
(lp3325
g39
asg40
I54
sg41
I11
sg42
S'Siren Wireless Network'
p3326
sbsS'AC:81:12:2A:50:1A'
p3327
g2
(g3
g4
Ntp3328
Rp3329
(dp3330
g8
(lp3331
g10
ag3327
aS' 2014-03-02 23:13:22'
p3332
aS'2014-03-02 23:18:06'
p3333
ag51
aS'54'
p3334
aS' WPA2WPA '
p3335
aS'-91'
p3336
ag17
aS' queenie'
p3337
asg19
g10
sg20
I-91
sg21
g3327
sg22
S'WPA2WPA'
p3338
sg24
S'2014-03-02 23:13:22'
p3339
sg26
I01
sg27
g17
sg28
(dp3340
g19
g10
sg30
g3327
sg31
I-91
sg32
(lp3341
g3332
ag3333
asg34
g3337
sg35
I54
ssg36
g3333
sg37
(lp3342
g39
asg40
I54
sg41
I6
sg42
S'queenie'
p3343
sbsS'08:17:35:DD:B9:C0'
p3344
g2
(g3
g4
Ntp3345
Rp3346
(dp3347
g8
(lp3348
g10
ag3344
aS' 2014-02-25 02:07:43'
p3349
aS'2014-02-25 02:31:15'
p3350
ag51
aS'54'
p3351
aS' WPA2WPA OPN '
p3352
aS'-81'
p3353
ag17
aS' nyu'
p3354
asg19
g10
sg20
I-81
sg21
g3344
sg22
S'WPA2WPA OPN'
p3355
sg24
S'2014-02-25 02:07:43'
p3356
sg26
I01
sg27
g17
sg28
(dp3357
g19
g10
sg30
g3344
sg31
I-81
sg32
(lp3358
g3349
ag3350
asg34
g3354
sg35
I54
ssg36
g3350
sg37
(lp3359
g39
asg40
I54
sg41
I6
sg42
S'nyu'
p3360
sbsS'C0:C1:C0:A7:B4:06'
p3361
g2
(g3
g4
Ntp3362
Rp3363
(dp3364
g8
(lp3365
g10
ag3361
aS' 2014-02-25 02:16:12'
p3366
aS'2014-02-25 02:31:03'
p3367
aS'11'
p3368
aS'54'
p3369
aS' WPA2'
p3370
aS'-80'
p3371
ag17
aS' minervasowl123'
p3372
asg19
g10
sg20
I-80
sg21
g3361
sg22
S'WPA2'
p3373
sg24
S'2014-02-25 02:16:12'
p3374
sg26
I01
sg27
g17
sg28
(dp3375
g19
g10
sg30
g3361
sg31
I-80
sg32
(lp3376
g3366
ag3367
asg34
g3372
sg35
I54
ssg36
g3367
sg37
(lp3377
g39
asg40
I54
sg41
I11
sg42
S'minervasowl123'
p3378
sbsS'00:12:0E:85:70:58'
p3379
g2
(g3
g4
Ntp3380
Rp3381
(dp3382
g8
(lp3383
g10
ag3379
aS' 2014-02-25 02:10:15'
p3384
aS'2014-02-25 02:29:13'
p3385
aS'11'
p3386
aS'54'
p3387
aS' WEP '
p3388
aS'-87'
p3389
ag17
aS" Jane's Wireless"
p3390
asg19
g10
sg20
I-87
sg21
g3379
sg22
S'WEP'
p3391
sg24
S'2014-02-25 02:10:15'
p3392
sg26
I01
sg27
g17
sg28
(dp3393
g19
g10
sg30
g3379
sg31
I-87
sg32
(lp3394
g3384
ag3385
asg34
g3390
sg35
I54
ssg36
g3385
sg37
(lp3395
g39
asg40
I54
sg41
I11
sg42
S"Jane's Wireless"
p3396
sbsS'04:C5:A4:8D:DF:40'
p3397
g2
(g3
g4
Ntp3398
Rp3399
(dp3400
g8
(lp3401
g10
ag3397
aS' 2014-02-25 02:20:42'
p3402
aS'2014-02-25 02:25:37'
p3403
aS'11'
p3404
aS'54'
p3405
aS' WPA2WPA OPN '
p3406
aS'-78'
p3407
ag17
aS' nyu'
p3408
asg19
g10
sg20
I-78
sg21
g3397
sg22
S'WPA2WPA OPN'
p3409
sg24
S'2014-02-25 02:20:42'
p3410
sg26
I01
sg27
g17
sg28
(dp3411
g19
g10
sg30
g3397
sg31
I-78
sg32
(lp3412
g3402
ag3403
asg34
g3408
sg35
I54
ssg36
g3403
sg37
(lp3413
g39
asg40
I54
sg41
I11
sg42
S'nyu'
p3414
sbsS'04:C5:A4:8D:DF:42'
p3415
g2
(g3
g4
Ntp3416
Rp3417
(dp3418
g8
(lp3419
g10
ag3415
aS' 2014-02-25 02:25:37'
p3420
aS'2014-02-25 02:26:05'
p3421
aS'11'
p3422
aS'54'
p3423
aS' OPN '
p3424
aS'-77'
p3425
ag17
aS' NYU-ROAM3'
p3426
asg19
g10
sg20
I-77
sg21
g3415
sg22
S'OPN'
p3427
sg24
S'2014-02-25 02:25:37'
p3428
sg26
I01
sg27
g17
sg28
(dp3429
g19
g10
sg30
g3415
sg31
I-77
sg32
(lp3430
g3420
ag3421
asg34
g3426
sg35
I54
ssg36
g3421
sg37
(lp3431
g39
asg40
I54
sg41
I11
sg42
S'NYU-ROAM3'
p3432
sbsS'04:C5:A4:8D:DF:43'
p3433
g2
(g3
g4
Ntp3434
Rp3435
(dp3436
g8
(lp3437
g10
ag3433
aS' 2014-02-25 02:26:05'
p3438
aS'2014-02-25 02:26:05'
p3439
aS'11'
p3440
aS'54'
p3441
aS' OPN '
p3442
aS'-78'
p3443
ag17
aS' nyupda'
p3444
asg19
g10
sg20
I-78
sg21
g3433
sg22
S'OPN'
p3445
sg24
S'2014-02-25 02:26:05'
p3446
sg26
I01
sg27
g17
sg28
(dp3447
g19
g10
sg30
g3433
sg31
I-78
sg32
(lp3448
g3438
ag3439
asg34
g3444
sg35
I54
ssg36
g3439
sg37
(lp3449
g39
asg40
I54
sg41
I11
sg42
S'nyupda'
p3450
sbsS'00:00:00:00:00:00'
p3451
g2
(g3
g4
Ntp3452
Rp3453
(dp3454
g8
(lp3455
g10
ag3451
aS' 2014-02-25 02:07:45'
p3456
aS'2014-02-25 02:30:56'
p3457
aS'108'
p3458
aS'-1'
p3459
aS'     '
p3460
aS'-77'
p3461
ag17
ag73
asg19
g10
sg20
I-77
sg21
g3451
sg22
g39
sg24
S'2014-02-25 02:07:45'
p3462
sg26
I01
sg27
g17
sg28
(dp3463
g19
g10
sg30
g3451
sg31
I-77
sg32
(lp3464
g3456
ag3457
asg34
g73
sg35
I-1
ssg36
g3457
sg37
(lp3465
g39
asg40
I-1
sg41
I108
sg42
g39
sbsS'C4:3D:C7:92:19:68'
p3466
g2
(g3
g4
Ntp3467
Rp3468
(dp3469
g8
(lp3470
g10
ag3466
aS' 2014-03-02 23:43:38'
p3471
aS'2014-03-02 23:58:18'
p3472
ag239
aS'54'
p3473
aS' WPA2'
p3474
aS'-89'
p3475
ag17
aS' Tyrizzle'
p3476
asg19
g10
sg20
I-89
sg21
g3466
sg22
g3474
sg24
g3471
sg26
I01
sg27
g17
sg28
(dp3477
g19
g10
sg30
g3466
sg31
I-89
sg32
g3472
sg34
S' Tyrizzle'
p3478
sg35
I54
ssg36
g3472
sg37
g73
sg40
I54
sg41
I9
sg42
g3476
sbsS'48:F8:B3:03:F6:DC'
p3479
g2
(g3
g4
Ntp3480
Rp3481
(dp3482
g8
(lp3483
g10
ag3479
aS' 2014-02-25 02:10:06'
p3484
aS'2014-02-25 02:26:24'
p3485
aS'11'
p3486
aS'54'
p3487
aS' WPA2WPA '
p3488
aS'-84'
p3489
ag17
aS' mangas72'
p3490
asg19
g10
sg20
I-84
sg21
g3479
sg22
S'WPA2WPA'
p3491
sg24
S'2014-02-25 02:10:06'
p3492
sg26
I01
sg27
g17
sg28
(dp3493
g19
g10
sg30
g3479
sg31
I-84
sg32
(lp3494
g3484
ag3485
asg34
g3490
sg35
I54
ssg36
g3485
sg37
(lp3495
g39
asg40
I54
sg41
I11
sg42
S'mangas72'
p3496
sbsS'08:17:35:DD:B9:C3'
p3497
g2
(g3
g4
Ntp3498
Rp3499
(dp3500
g8
(lp3501
g10
ag3497
aS' 2014-02-25 02:09:57'
p3502
aS'2014-02-25 02:31:15'
p3503
ag51
aS'54'
p3504
aS' OPN '
p3505
aS'-81'
p3506
ag17
aS' nyupda'
p3507
asg19
g10
sg20
I-81
sg21
g3497
sg22
S'OPN'
p3508
sg24
S'2014-02-25 02:09:57'
p3509
sg26
I01
sg27
g17
sg28
(dp3510
g19
g10
sg30
g3497
sg31
I-81
sg32
(lp3511
g3502
ag3503
asg34
g3507
sg35
I54
ssg36
g3503
sg37
(lp3512
g39
asg40
I54
sg41
I6
sg42
S'nyupda'
p3513
sbsS'08:17:35:DD:B9:C2'
p3514
g2
(g3
g4
Ntp3515
Rp3516
(dp3517
g8
(lp3518
g10
ag3514
aS' 2014-02-25 02:08:31'
p3519
aS'2014-02-25 02:30:35'
p3520
ag51
aS'54'
p3521
aS' OPN '
p3522
aS'-80'
p3523
ag17
aS' NYU-ROAM3'
p3524
asg19
g10
sg20
I-80
sg21
g3514
sg22
S'OPN'
p3525
sg24
S'2014-02-25 02:08:31'
p3526
sg26
I01
sg27
g17
sg28
(dp3527
g19
g10
sg30
g3514
sg31
I-80
sg32
(lp3528
g3519
ag3520
asg34
g3524
sg35
I54
ssg36
g3520
sg37
(lp3529
g39
asg40
I54
sg41
I6
sg42
S'NYU-ROAM3'
p3530
sbsS'08:17:35:DD:B9:C1'
p3531
g2
(g3
g4
Ntp3532
Rp3533
(dp3534
g8
(lp3535
g10
ag3531
aS' 2014-02-25 02:09:57'
p3536
aS'2014-02-25 02:30:25'
p3537
ag51
aS'54'
p3538
aS' OPN '
p3539
aS'-78'
p3540
ag17
aS' nyuguest'
p3541
asg19
g10
sg20
I-78
sg21
g3531
sg22
S'OPN'
p3542
sg24
S'2014-02-25 02:09:57'
p3543
sg26
I01
sg27
g17
sg28
(dp3544
g19
g10
sg30
g3531
sg31
I-78
sg32
(lp3545
g3536
ag3537
asg34
g3541
sg35
I54
ssg36
g3537
sg37
(lp3546
g39
asg40
I54
sg41
I6
sg42
S'nyuguest'
p3547
sbsS'E0:91:F5:CA:84:04'
p3548
g2
(g3
g4
Ntp3549
Rp3550
(dp3551
g8
(lp3552
g10
ag3548
aS' 2014-03-02 23:42:42'
p3553
aS'2014-03-02 23:55:40'
p3554
ag1074
aS'54'
p3555
aS' WPA2'
p3556
aS'-88'
p3557
ag17
aS' pinoykami'
p3558
asg19
g10
sg20
I-88
sg21
g3548
sg22
g3556
sg24
g3553
sg26
I01
sg27
g17
sg28
(dp3559
g19
g10
sg30
g3548
sg31
I-88
sg32
g3554
sg34
S' pinoykami'
p3560
sg35
I54
ssg36
g3554
sg37
g73
sg40
I54
sg41
I5
sg42
g3558
sbsS'00:23:97:ED:F7:9E'
p3561
g2
(g3
g4
Ntp3562
Rp3563
(dp3564
g8
(lp3565
g10
ag3561
aS' 2014-02-25 02:25:38'
p3566
aS'2014-02-25 02:25:47'
p3567
ag51
aS'54'
p3568
aS' WEP '
p3569
aS'-87'
p3570
ag17
aS' \x00\x00\x00\x00\x00\x00\x00\x00\x00\x00\x00\x00'
p3571
asg19
g10
sg20
I-87
sg21
g3561
sg22
S'WEP'
p3572
sg24
S'2014-02-25 02:25:38'
p3573
sg26
I01
sg27
g17
sg28
(dp3574
g19
g10
sg30
g3561
sg31
I-87
sg32
(lp3575
g3566
ag3567
asg34
g3571
sg35
I54
ssg36
g3567
sg37
(lp3576
g39
asg40
I54
sg41
I6
sg42
S'\x00\x00\x00\x00\x00\x00\x00\x00\x00\x00\x00\x00'
p3577
sbsS'C8:D7:19:B6:53:75'
p3578
g2
(g3
g4
Ntp3579
Rp3580
(dp3581
g8
(lp3582
g10
ag3578
aS' 2014-03-02 23:08:53'
p3583
aS'2014-03-02 23:26:16'
p3584
ag51
aS'54'
p3585
aS' WPA2WPA '
p3586
aS'-90'
p3587
ag17
aS' HausOfEleganza'
p3588
asg19
g10
sg20
I-90
sg21
g3578
sg22
S'WPA2WPA'
p3589
sg24
S'2014-03-02 23:08:53'
p3590
sg26
I01
sg27
g17
sg28
(dp3591
g19
g10
sg30
g3578
sg31
I-90
sg32
(lp3592
g3583
ag3584
asg34
g3588
sg35
I54
ssg36
g3584
sg37
(lp3593
g39
asg40
I54
sg41
I6
sg42
S'HausOfEleganza'
p3594
sbsS'C8:D7:19:B6:53:77'
p3595
g2
(g3
g4
Ntp3596
Rp3597
(dp3598
g8
(lp3599
g10
ag3595
aS' 2014-03-02 23:20:54'
p3600
aS'2014-03-02 23:21:31'
p3601
ag51
aS'54'
p3602
aS' OPN '
p3603
aS'-91'
p3604
ag17
aS' HausOfEleganza-guest'
p3605
asg19
g10
sg20
I-91
sg21
g3595
sg22
S'OPN'
p3606
sg24
S'2014-03-02 23:20:54'
p3607
sg26
I01
sg27
g17
sg28
(dp3608
g19
g10
sg30
g3595
sg31
I-91
sg32
(lp3609
g3600
ag3601
asg34
g3605
sg35
I54
ssg36
g3601
sg37
(lp3610
g39
asg40
I54
sg41
I6
sg42
S'HausOfEleganza-guest'
p3611
sbsS'00:22:6B:41:A4:B2'
p3612
g2
(g3
g4
Ntp3613
Rp3614
(dp3615
g8
(lp3616
g10
ag3612
aS' 2014-02-25 02:07:35'
p3617
aS'2014-02-25 02:31:06'
p3618
ag13
aS'54'
p3619
aS' WPA '
p3620
aS'-77'
p3621
ag17
aS' Farah'
p3622
asg19
g10
sg20
I-77
sg21
g3612
sg22
S'WPA'
p3623
sg24
S'2014-02-25 02:07:35'
p3624
sg26
I01
sg27
g17
sg28
(dp3625
g19
g10
sg30
g3612
sg31
I-77
sg32
(lp3626
g3617
ag3618
asg34
g3622
sg35
I54
ssg36
g3618
sg37
(lp3627
g39
asg40
I54
sg41
I1
sg42
S'Farah'
p3628
sbsS'04:C5:A4:92:AE:23'
p3629
g2
(g3
g4
Ntp3630
Rp3631
(dp3632
g8
(lp3633
g10
ag3629
aS' 2014-02-25 02:07:52'
p3634
aS'2014-02-25 02:31:15'
p3635
aS'11'
p3636
aS'54'
p3637
aS' OPN '
p3638
aS'-77'
p3639
ag17
aS' nyupda'
p3640
asg19
g10
sg20
I-77
sg21
g3629
sg22
S'OPN'
p3641
sg24
S'2014-02-25 02:07:52'
p3642
sg26
I01
sg27
g17
sg28
(dp3643
g19
g10
sg30
g3629
sg31
I-77
sg32
(lp3644
g3634
ag3635
asg34
g3640
sg35
I54
ssg36
g3635
sg37
(lp3645
g39
asg40
I54
sg41
I11
sg42
S'nyupda'
p3646
sbsS'F8:E4:FB:C6:EA:13'
p3647
g2
(g3
g4
Ntp3648
Rp3649
(dp3650
g8
(lp3651
g10
ag3647
aS' 2014-02-25 02:07:36'
p3652
aS'2014-02-25 02:29:15'
p3653
ag13
aS'54'
p3654
aS' WPA2'
p3655
aS'-86'
p3656
ag17
aS' ZNJGN'
p3657
asg19
g10
sg20
I-86
sg21
g3647
sg22
S'WPA2'
p3658
sg24
S'2014-02-25 02:07:36'
p3659
sg26
I01
sg27
g17
sg28
(dp3660
g19
g10
sg30
g3647
sg31
I-86
sg32
(lp3661
g3652
ag3653
asg34
g3657
sg35
I54
ssg36
g3653
sg37
(lp3662
g39
asg40
I54
sg41
I1
sg42
S'ZNJGN'
p3663
sbsS'04:C5:A4:92:AE:21'
p3664
g2
(g3
g4
Ntp3665
Rp3666
(dp3667
g8
(lp3668
g10
ag3664
aS' 2014-02-25 02:07:43'
p3669
aS'2014-02-25 02:31:14'
p3670
aS'11'
p3671
aS'54'
p3672
aS' OPN '
p3673
aS'-75'
p3674
ag17
aS' nyuguest'
p3675
asg19
g10
sg20
I-75
sg21
g3664
sg22
S'OPN'
p3676
sg24
S'2014-02-25 02:07:43'
p3677
sg26
I01
sg27
g17
sg28
(dp3678
g19
g10
sg30
g3664
sg31
I-75
sg32
(lp3679
g3669
ag3670
asg34
g3675
sg35
I54
ssg36
g3670
sg37
(lp3680
g39
asg40
I54
sg41
I11
sg42
S'nyuguest'
p3681
sbsS'04:C5:A4:92:50:E1'
p3682
g2
(g3
g4
Ntp3683
Rp3684
(dp3685
g8
(lp3686
g10
ag3682
aS' 2014-02-25 02:07:35'
p3687
aS'2014-02-25 02:31:18'
p3688
ag13
aS'54'
p3689
aS' OPN '
p3690
aS'-57'
p3691
ag17
aS' nyuguest'
p3692
asg19
g10
sg20
I-57
sg21
g3682
sg22
S'OPN'
p3693
sg24
S'2014-02-25 02:07:35'
p3694
sg26
I01
sg27
g17
sg28
(dp3695
g19
g10
sg30
g3682
sg31
I-57
sg32
(lp3696
g3687
ag3688
asg34
g3692
sg35
I54
ssg36
g3688
sg37
(lp3697
g39
asg40
I54
sg41
I1
sg42
S'nyuguest'
p3698
sbsS'04:C5:A4:92:50:E0'
p3699
g2
(g3
g4
Ntp3700
Rp3701
(dp3702
g8
(lp3703
g10
ag3699
aS' 2014-02-25 02:07:35'
p3704
aS'2014-02-25 02:31:17'
p3705
ag13
aS'54'
p3706
aS' WPA2WPA '
p3707
aS'-57'
p3708
ag17
aS' nyu'
p3709
asg19
g10
sg20
I-57
sg21
g3699
sg22
S'WPA2WPA'
p3710
sg24
S'2014-02-25 02:07:35'
p3711
sg26
I01
sg27
g17
sg28
(dp3712
g19
g10
sg30
g3699
sg31
I-57
sg32
(lp3713
g3704
ag3705
asg34
g3709
sg35
I54
ssg36
g3705
sg37
(lp3714
g39
asg40
I54
sg41
I1
sg42
S'nyu'
p3715
sbsS'04:C5:A4:92:50:E3'
p3716
g2
(g3
g4
Ntp3717
Rp3718
(dp3719
g8
(lp3720
g10
ag3716
aS' 2014-02-25 02:07:35'
p3721
aS'2014-02-25 02:31:17'
p3722
ag13
aS'54'
p3723
aS' OPN '
p3724
aS'-56'
p3725
ag17
aS' nyupda'
p3726
asg19
g10
sg20
I-56
sg21
g3716
sg22
S'OPN'
p3727
sg24
S'2014-02-25 02:07:35'
p3728
sg26
I01
sg27
g17
sg28
(dp3729
g19
g10
sg30
g3716
sg31
I-56
sg32
(lp3730
g3721
ag3722
asg34
g3726
sg35
I54
ssg36
g3722
sg37
(lp3731
g39
asg40
I54
sg41
I1
sg42
S'nyupda'
p3732
sbsS'04:C5:A4:92:AE:20'
p3733
g2
(g3
g4
Ntp3734
Rp3735
(dp3736
g8
(lp3737
g10
ag3733
aS' 2014-02-25 02:07:43'
p3738
aS'2014-02-25 02:30:58'
p3739
aS'11'
p3740
aS'54'
p3741
aS' WPA2WPA '
p3742
aS'-75'
p3743
ag17
aS' nyu'
p3744
asg19
g10
sg20
I-75
sg21
g3733
sg22
S'WPA2WPA'
p3745
sg24
S'2014-02-25 02:07:43'
p3746
sg26
I01
sg27
g17
sg28
(dp3747
g19
g10
sg30
g3733
sg31
I-75
sg32
(lp3748
g3738
ag3739
asg34
g3744
sg35
I54
ssg36
g3739
sg37
(lp3749
g39
asg40
I54
sg41
I11
sg42
S'nyu'
p3750
sbsS'CC:A4:62:17:8D:30'
p3751
g2
(g3
g4
Ntp3752
Rp3753
(dp3754
g8
(lp3755
g10
ag3751
aS' 2014-02-25 02:07:43'
p3756
aS'2014-02-25 02:25:28'
p3757
ag51
aS'54'
p3758
aS' WPA2'
p3759
aS'-85'
p3760
ag17
aS' TG862G32'
p3761
asg19
g10
sg20
I-85
sg21
g3751
sg22
S'WPA2'
p3762
sg24
S'2014-02-25 02:07:43'
p3763
sg26
I01
sg27
g17
sg28
(dp3764
g19
g10
sg30
g3751
sg31
I-85
sg32
(lp3765
g3756
ag3757
asg34
g3761
sg35
I54
ssg36
g3757
sg37
(lp3766
g39
asg40
I54
sg41
I6
sg42
S'TG862G32'
p3767
sbsS'00:23:97:83:FB:F3'
p3768
g2
(g3
g4
Ntp3769
Rp3770
(dp3771
g8
(lp3772
g10
ag3768
aS' 2014-02-25 02:25:47'
p3773
aS'2014-02-25 02:25:56'
p3774
ag51
aS'54'
p3775
aS' WEP '
p3776
aS'-87'
p3777
ag17
aS' 09FX08069910'
p3778
asg19
g10
sg20
I-87
sg21
g3768
sg22
S'WEP'
p3779
sg24
S'2014-02-25 02:25:47'
p3780
sg26
I01
sg27
g17
sg28
(dp3781
g19
g10
sg30
g3768
sg31
I-87
sg32
(lp3782
g3773
ag3774
asg34
g3778
sg35
I54
ssg36
g3774
sg37
(lp3783
g39
asg40
I54
sg41
I6
sg42
S'09FX08069910'
p3784
sbsS'68:7F:74:8D:D4:15'
p3785
g2
(g3
g4
Ntp3786
Rp3787
(dp3788
g8
(lp3789
g10
ag3785
aS' 2014-03-02 23:43:32'
p3790
aS'2014-03-02 23:49:38'
p3791
ag51
aS'54'
p3792
aS' WPA2WPA '
p3793
aS'-91'
p3794
ag17
aS' Alice2000'
p3795
asg19
g10
sg20
I-91
sg21
g3785
sg22
g3793
sg24
g3790
sg26
I01
sg27
g17
sg28
(dp3796
g19
g10
sg30
g3785
sg31
I-91
sg32
g3791
sg34
S' Alice2000'
p3797
sg35
I54
ssg36
g3791
sg37
g73
sg40
I54
sg41
I6
sg42
g3795
sbsS'74:44:01:75:81:99'
p3798
g2
(g3
g4
Ntp3799
Rp3800
(dp3801
g8
(lp3802
g10
ag3798
aS' 2014-02-25 02:07:38'
p3803
aS'2014-02-25 02:30:59'
p3804
ag1995
aS'54'
p3805
aS' WPA2'
p3806
aS'-86'
p3807
ag17
aS' Archer4Life'
p3808
asg19
g10
sg20
I-86
sg21
g3798
sg22
S'WPA2'
p3809
sg24
S'2014-02-25 02:07:38'
p3810
sg26
I01
sg27
g17
sg28
(dp3811
g19
g10
sg30
g3798
sg31
I-86
sg32
(lp3812
g3803
ag3804
asg34
g3808
sg35
I54
ssg36
g3804
sg37
(lp3813
g39
asg40
I54
sg41
I8
sg42
S'Archer4Life'
p3814
sbsS'00:16:B6:62:A5:10'
p3815
g2
(g3
g4
Ntp3816
Rp3817
(dp3818
g8
(lp3819
g10
ag3815
aS' 2014-02-25 02:26:34'
p3820
aS'2014-02-25 02:31:15'
p3821
ag51
aS'54'
p3822
aS' WPA '
p3823
aS'-83'
p3824
ag17
aS' Crestron'
p3825
asg19
g10
sg20
I-83
sg21
g3815
sg22
S'WPA'
p3826
sg24
S'2014-02-25 02:26:34'
p3827
sg26
I01
sg27
g17
sg28
(dp3828
g19
g10
sg30
g3815
sg31
I-83
sg32
(lp3829
g3820
ag3821
asg34
g3825
sg35
I54
ssg36
g3821
sg37
(lp3830
g39
asg40
I54
sg41
I6
sg42
S'Crestron'
p3831
sbsS'00:7F:28:A1:AA:F1'
p3832
g2
(g3
g4
Ntp3833
Rp3834
(dp3835
g8
(lp3836
g10
ag3832
aS' 2014-02-25 02:14:16'
p3837
aS'2014-02-25 02:14:16'
p3838
aS'158'
p3839
aS'-1'
p3840
aS'     '
p3841
aS'-128'
p3842
ag17
ag73
asg19
g10
sg20
I-128
sg21
g3832
sg22
g39
sg24
S'2014-02-25 02:14:16'
p3843
sg26
I01
sg27
g17
sg28
(dp3844
g19
g10
sg30
g3832
sg31
I-128
sg32
(lp3845
g3837
ag3838
asg34
g73
sg35
I-1
ssg36
g3838
sg37
(lp3846
g39
asg40
I-1
sg41
I158
sg42
g39
sbsS'20:AA:4B:1F:F8:5C'
p3847
g2
(g3
g4
Ntp3848
Rp3849
(dp3850
g8
(lp3851
g10
ag3847
aS' 2014-03-02 23:42:15'
p3852
aS'2014-03-02 23:58:08'
p3853
ag13
aS'54'
p3854
aS' WPA2WPA '
p3855
aS'-88'
p3856
ag17
aS' NomNom'
p3857
asg19
g10
sg20
I-88
sg21
g3847
sg22
g3855
sg24
g3852
sg26
I01
sg27
g17
sg28
(dp3858
g19
g10
sg30
g3847
sg31
I-88
sg32
g3853
sg34
S' NomNom'
p3859
sg35
I54
ssg36
g3853
sg37
g73
sg40
I54
sg41
I1
sg42
g3857
sbsS'86:1B:5E:E2:BF:03'
p3860
g2
(g3
g4
Ntp3861
Rp3862
(dp3863
g8
(lp3864
g10
ag3860
aS' 2014-02-25 02:09:11'
p3865
aS'2014-02-25 02:30:27'
p3866
aS'138'
p3867
aS'-1'
p3868
aS' OPN '
p3869
aS'-128'
p3870
ag17
ag73
asg19
g10
sg20
I-128
sg21
g3860
sg22
S'OPN'
p3871
sg24
S'2014-02-25 02:09:11'
p3872
sg26
I01
sg27
g17
sg28
(dp3873
g19
g10
sg30
g3860
sg31
I-128
sg32
(lp3874
g3865
ag3866
asg34
g73
sg35
I-1
ssg36
g3866
sg37
(lp3875
g39
asg40
I-1
sg41
I138
sg42
g39
sbsS'20:AA:4B:1F:F8:5D'
p3876
g2
(g3
g4
Ntp3877
Rp3878
(dp3879
g8
(lp3880
g10
ag3876
aS' 2014-03-02 23:42:15'
p3881
aS'2014-03-02 23:58:08'
p3882
ag13
aS'54'
p3883
aS' OPN '
p3884
aS'-87'
p3885
ag17
aS' NomNom-guest'
p3886
asg19
g10
sg20
I-87
sg21
g3876
sg22
g3884
sg24
g3881
sg26
I01
sg27
g17
sg28
(dp3887
g19
g10
sg30
g3876
sg31
I-87
sg32
g3882
sg34
S' NomNom-guest'
p3888
sg35
I54
ssg36
g3882
sg37
g73
sg40
I54
sg41
I1
sg42
g3886
sbsS'10:8C:CF:76:1C:22'
p3889
g2
(g3
g4
Ntp3890
Rp3891
(dp3892
g8
(lp3893
g10
ag3889
aS' 2014-02-25 02:25:08'
p3894
aS'2014-02-25 02:25:27'
p3895
aS'11'
p3896
aS'54'
p3897
aS' OPN '
p3898
aS'-78'
p3899
ag17
aS' NYU-ROAM3'
p3900
asg19
g10
sg20
I-78
sg21
g3889
sg22
S'OPN'
p3901
sg24
S'2014-02-25 02:25:08'
p3902
sg26
I01
sg27
g17
sg28
(dp3903
g19
g10
sg30
g3889
sg31
I-78
sg32
(lp3904
g3894
ag3895
asg34
g3900
sg35
I54
ssg36
g3895
sg37
(lp3905
g39
asg40
I54
sg41
I11
sg42
S'NYU-ROAM3'
p3906
sbsS'90:72:40:16:45:12'
p3907
g2
(g3
g4
Ntp3908
Rp3909
(dp3910
g8
(lp3911
g10
ag3907
aS' 2014-03-02 23:05:13'
p3912
aS'2014-03-02 23:13:31'
p3913
aS'11'
p3914
aS'54'
p3915
aS' WPA2'
p3916
aS'-89'
p3917
ag17
aS" PLG3's Wi-Fi Network"
p3918
asg19
g10
sg20
I-89
sg21
g3907
sg22
S'WPA2'
p3919
sg24
S'2014-03-02 23:05:13'
p3920
sg26
I01
sg27
g17
sg28
(dp3921
g19
g10
sg30
g3907
sg31
I-89
sg32
(lp3922
g3912
ag3913
asg34
g3918
sg35
I54
ssg36
g3913
sg37
(lp3923
g39
asg40
I54
sg41
I11
sg42
S"PLG3's Wi-Fi Network"
p3924
sbsS'48:F8:B3:3A:62:DE'
p3925
g2
(g3
g4
Ntp3926
Rp3927
(dp3928
g8
(lp3929
g10
ag3925
aS' 2014-02-25 02:07:53'
p3930
aS'2014-02-25 02:31:04'
p3931
aS'11'
p3932
aS'54'
p3933
aS' WPA2WPA '
p3934
aS'-83'
p3935
ag17
aS' Rachel&Darrin'
p3936
asg19
g10
sg20
I-83
sg21
g3925
sg22
S'WPA2WPA'
p3937
sg24
S'2014-02-25 02:07:53'
p3938
sg26
I01
sg27
g17
sg28
(dp3939
g19
g10
sg30
g3925
sg31
I-83
sg32
(lp3940
g3930
ag3931
asg34
g3936
sg35
I54
ssg36
g3931
sg37
(lp3941
g39
asg40
I54
sg41
I11
sg42
S'Rachel&Darrin'
p3942
sbsS'48:F8:B3:3E:96:C9'
p3943
g2
(g3
g4
Ntp3944
Rp3945
(dp3946
g8
(lp3947
g10
ag3943
aS' 2014-02-25 02:19:44'
p3948
aS'2014-02-25 02:22:13'
p3949
aS'11'
p3950
aS'54'
p3951
aS' OPN '
p3952
aS'-88'
p3953
ag17
aS' Dylan-guest'
p3954
asg19
g10
sg20
I-88
sg21
g3943
sg22
S'OPN'
p3955
sg24
S'2014-02-25 02:19:44'
p3956
sg26
I01
sg27
g17
sg28
(dp3957
g19
g10
sg30
g3943
sg31
I-88
sg32
(lp3958
g3948
ag3949
asg34
g3954
sg35
I54
ssg36
g3949
sg37
(lp3959
g39
asg40
I54
sg41
I11
sg42
S'Dylan-guest'
p3960
sbsS'1C:3E:84:08:59:58'
p3961
g2
(g3
g4
Ntp3962
Rp3963
(dp3964
g8
(lp3965
g10
ag3961
aS' 2014-02-25 02:25:47'
p3966
aS'2014-02-25 02:25:56'
p3967
ag51
aS'54'
p3968
aS' OPN '
p3969
aS'-78'
p3970
ag17
aS' HP-Print-58-LaserJet 1102'
p3971
asg19
g10
sg20
I-78
sg21
g3961
sg22
S'OPN'
p3972
sg24
S'2014-02-25 02:25:47'
p3973
sg26
I01
sg27
g17
sg28
(dp3974
g19
g10
sg30
g3961
sg31
I-78
sg32
(lp3975
g3966
ag3967
asg34
g3971
sg35
I54
ssg36
g3967
sg37
(lp3976
g39
asg40
I54
sg41
I6
sg42
S'HP-Print-58-LaserJet 1102'
p3977
sbsS'00:25:00:FF:94:73'
p3978
g2
(g3
g4
Ntp3979
Rp3980
(dp3981
g8
(lp3982
g10
ag3978
aS' 2014-02-25 02:07:39'
p3983
aS'2014-02-25 02:30:35'
p3984
aS'-1'
p3985
aS'-1'
p3986
aS'     '
p3987
aS'-128'
p3988
ag17
ag73
asg19
g10
sg20
I-128
sg21
g3978
sg22
g3987
sg24
g3983
sg26
I01
sg27
g17
sg28
(dp3989
g19
g10
sg30
g3978
sg31
I-128
sg32
g3984
sg34
g73
sg35
I-1
ssg36
g3984
sg37
g73
sg40
I-1
sg41
I-1
sg42
g73
sbsS'68:7F:74:53:0B:30'
p3990
g2
(g3
g4
Ntp3991
Rp3992
(dp3993
g8
(lp3994
g10
ag3990
aS' 2014-02-25 02:26:33'
p3995
aS'2014-02-25 02:31:17'
p3996
ag51
aS'54'
p3997
aS' WPA2WPA '
p3998
aS'-76'
p3999
ag17
aS' Cliff Huxtable'
p4000
asg19
g10
sg20
I-76
sg21
g3990
sg22
S'WPA2WPA'
p4001
sg24
S'2014-02-25 02:26:33'
p4002
sg26
I01
sg27
g17
sg28
(dp4003
g19
g10
sg30
g3990
sg31
I-76
sg32
(lp4004
g3995
ag3996
asg34
g4000
sg35
I54
ssg36
g3996
sg37
(lp4005
g39
asg40
I54
sg41
I6
sg42
S'Cliff Huxtable'
p4006
sbsS'10:8C:CF:79:17:F2'
p4007
g2
(g3
g4
Ntp4008
Rp4009
(dp4010
g8
(lp4011
g10
ag4007
aS' 2014-02-25 02:07:35'
p4012
aS'2014-02-25 02:22:34'
p4013
ag13
aS'54'
p4014
aS' OPN '
p4015
aS'-70'
p4016
ag17
aS' NYU-ROAM3'
p4017
asg19
g10
sg20
I-70
sg21
g4007
sg22
S'OPN'
p4018
sg24
S'2014-02-25 02:07:35'
p4019
sg26
I01
sg27
g17
sg28
(dp4020
g19
g10
sg30
g4007
sg31
I-70
sg32
(lp4021
g4012
ag4013
asg34
g4017
sg35
I54
ssg36
g4013
sg37
(lp4022
g39
asg40
I54
sg41
I1
sg42
S'NYU-ROAM3'
p4023
sbsS'10:8C:CF:79:17:F3'
p4024
g2
(g3
g4
Ntp4025
Rp4026
(dp4027
g8
(lp4028
g10
ag4024
aS' 2014-02-25 02:07:35'
p4029
aS'2014-02-25 02:27:25'
p4030
ag13
aS'54'
p4031
aS' OPN '
p4032
aS'-75'
p4033
ag17
aS' nyupda'
p4034
asg19
g10
sg20
I-75
sg21
g4024
sg22
S'OPN'
p4035
sg24
S'2014-02-25 02:07:35'
p4036
sg26
I01
sg27
g17
sg28
(dp4037
g19
g10
sg30
g4024
sg31
I-75
sg32
(lp4038
g4029
ag4030
asg34
g4034
sg35
I54
ssg36
g4030
sg37
(lp4039
g39
asg40
I54
sg41
I1
sg42
S'nyupda'
p4040
sbsS'10:8C:CF:79:17:F0'
p4041
g2
(g3
g4
Ntp4042
Rp4043
(dp4044
g8
(lp4045
g10
ag4041
aS' 2014-02-25 02:09:40'
p4046
aS'2014-02-25 02:28:02'
p4047
ag13
aS'54'
p4048
aS' WPA2WPA '
p4049
aS'-90'
p4050
ag17
aS' nyu'
p4051
asg19
g10
sg20
I-90
sg21
g4041
sg22
S'WPA2WPA'
p4052
sg24
S'2014-02-25 02:09:40'
p4053
sg26
I01
sg27
g17
sg28
(dp4054
g19
g10
sg30
g4041
sg31
I-90
sg32
(lp4055
g4046
ag4047
asg34
g4051
sg35
I54
ssg36
g4047
sg37
(lp4056
g39
asg40
I54
sg41
I1
sg42
S'nyu'
p4057
sbsS'10:8C:CF:79:17:F1'
p4058
g2
(g3
g4
Ntp4059
Rp4060
(dp4061
g8
(lp4062
g10
ag4058
aS' 2014-02-25 02:10:08'
p4063
aS'2014-02-25 02:26:45'
p4064
ag13
aS'54'
p4065
aS' OPN '
p4066
aS'-76'
p4067
ag17
aS' nyuguest'
p4068
asg19
g10
sg20
I-76
sg21
g4058
sg22
S'OPN'
p4069
sg24
S'2014-02-25 02:10:08'
p4070
sg26
I01
sg27
g17
sg28
(dp4071
g19
g10
sg30
g4058
sg31
I-76
sg32
(lp4072
g4063
ag4064
asg34
g4068
sg35
I54
ssg36
g4064
sg37
(lp4073
g39
asg40
I54
sg41
I1
sg42
S'nyuguest'
p4074
sbsS'90:72:40:26:6E:3A'
p4075
g2
(g3
g4
Ntp4076
Rp4077
(dp4078
g8
(lp4079
g10
ag4075
aS' 2014-02-25 02:08:50'
p4080
aS'2014-02-25 02:14:28'
p4081
ag51
aS'54'
p4082
aS' WPA2'
p4083
aS'-90'
p4084
ag17
aS' WorkHardPlayHard'
p4085
asg19
g10
sg20
I-90
sg21
g4075
sg22
S'WPA2'
p4086
sg24
S'2014-02-25 02:08:50'
p4087
sg26
I01
sg27
g17
sg28
(dp4088
g19
g10
sg30
g4075
sg31
I-90
sg32
(lp4089
g4080
ag4081
asg34
g4085
sg35
I54
ssg36
g4081
sg37
(lp4090
g39
asg40
I54
sg41
I6
sg42
S'WorkHardPlayHard'
p4091
sbsS'48:F8:B3:3E:96:C7'
p4092
g2
(g3
g4
Ntp4093
Rp4094
(dp4095
g8
(lp4096
g10
ag4092
aS' 2014-02-25 02:18:17'
p4097
aS'2014-02-25 02:30:35'
p4098
aS'11'
p4099
aS'54'
p4100
aS' WPA2WPA '
p4101
aS'-88'
p4102
ag17
aS' Dylan'
p4103
asg19
g10
sg20
I-88
sg21
g4092
sg22
S'WPA2WPA'
p4104
sg24
S'2014-02-25 02:18:17'
p4105
sg26
I01
sg27
g17
sg28
(dp4106
g19
g10
sg30
g4092
sg31
I-88
sg32
(lp4107
g4097
ag4098
asg34
g4103
sg35
I54
ssg36
g4098
sg37
(lp4108
g39
asg40
I54
sg41
I11
sg42
S'Dylan'
p4109
sbsS'CA:D7:19:AF:71:D6'
p4110
g2
(g3
g4
Ntp4111
Rp4112
(dp4113
g8
(lp4114
g10
ag4110
aS' 2014-02-25 02:07:41'
p4115
aS'2014-02-25 02:31:03'
p4116
aS'10'
p4117
aS'54'
p4118
aS' WPA2'
p4119
aS'-83'
p4120
ag17
aS' \x00\x00\x00\x00\x00\x00\x00\x00\x00\x00\x00\x00\x00\x00\x00\x00\x00\x00\x00\x00\x00\x00\x00\x00\x00\x00\x00\x00\x00\x00\x00\x00'
p4121
asg19
g10
sg20
I-83
sg21
g4110
sg22
S'WPA2'
p4122
sg24
S'2014-02-25 02:07:41'
p4123
sg26
I01
sg27
g17
sg28
(dp4124
g19
g10
sg30
g4110
sg31
I-83
sg32
(lp4125
g4115
ag4116
asg34
g4121
sg35
I54
ssg36
g4116
sg37
(lp4126
g39
asg40
I54
sg41
I10
sg42
S'\x00\x00\x00\x00\x00\x00\x00\x00\x00\x00\x00\x00\x00\x00\x00\x00\x00\x00\x00\x00\x00\x00\x00\x00\x00\x00\x00\x00\x00\x00\x00\x00'
p4127
sbsS'68:7F:74:53:0B:31'
p4128
g2
(g3
g4
Ntp4129
Rp4130
(dp4131
g8
(lp4132
g10
ag4128
aS' 2014-02-25 02:26:33'
p4133
aS'2014-02-25 02:31:15'
p4134
ag51
aS'54'
p4135
aS' OPN '
p4136
aS'-79'
p4137
ag17
aS' Cliff Huxtable-guest'
p4138
asg19
g10
sg20
I-79
sg21
g4128
sg22
S'OPN'
p4139
sg24
S'2014-02-25 02:26:33'
p4140
sg26
I01
sg27
g17
sg28
(dp4141
g19
g10
sg30
g4128
sg31
I-79
sg32
(lp4142
g4133
ag4134
asg34
g4138
sg35
I54
ssg36
g4134
sg37
(lp4143
g39
asg40
I54
sg41
I6
sg42
S'Cliff Huxtable-guest'
p4144
sbsS'00:8E:F2:5B:8F:50'
p4145
g2
(g3
g4
Ntp4146
Rp4147
(dp4148
g8
(lp4149
g10
ag4145
aS' 2014-02-25 02:07:57'
p4150
aS'2014-02-25 02:30:30'
p4151
aS'3'
p4152
aS'54'
p4153
aS' WPA2'
p4154
aS'-88'
p4155
ag17
aS' NETGEAR08'
p4156
asg19
g10
sg20
I-88
sg21
g4145
sg22
S'WPA2'
p4157
sg24
S'2014-02-25 02:07:57'
p4158
sg26
I01
sg27
g17
sg28
(dp4159
g19
g10
sg30
g4145
sg31
I-88
sg32
(lp4160
g4150
ag4151
asg34
g4156
sg35
I54
ssg36
g4151
sg37
(lp4161
g39
asg40
I54
sg41
I3
sg42
S'NETGEAR08'
p4162
sbsS'F8:E4:FB:E1:D1:D3'
p4163
g2
(g3
g4
Ntp4164
Rp4165
(dp4166
g8
(lp4167
g10
ag4163
aS' 2014-03-02 23:44:59'
p4168
aS'2014-03-02 23:52:08'
p4169
ag13
aS'54'
p4170
aS' WPA2'
p4171
aS'-91'
p4172
ag17
aS' 7BTXQ'
p4173
asg19
g10
sg20
I-91
sg21
g4163
sg22
S'WPA2'
p4174
sg24
S'2014-03-02 23:44:59'
p4175
sg26
I01
sg27
g17
sg28
(dp4176
g19
g10
sg30
g4163
sg31
I-91
sg32
(lp4177
g4168
ag4169
asg34
g4173
sg35
I54
ssg36
g4169
sg37
(lp4178
g39
asg40
I54
sg41
I1
sg42
S'7BTXQ'
p4179
sbsS'90:27:E4:5D:C3:E9'
p4180
g2
(g3
g4
Ntp4181
Rp4182
(dp4183
g8
(lp4184
g10
ag4180
aS' 2014-02-25 02:26:38'
p4185
aS'2014-02-25 02:30:59'
p4186
ag728
aS'54'
p4187
aS' WPA2'
p4188
aS'-82'
p4189
ag17
aS" Levi's Wi-Fi Network"
p4190
asg19
g10
sg20
I-82
sg21
g4180
sg22
S'WPA2'
p4191
sg24
S'2014-02-25 02:26:38'
p4192
sg26
I01
sg27
g17
sg28
(dp4193
g19
g10
sg30
g4180
sg31
I-82
sg32
(lp4194
g4185
ag4186
asg34
g4190
sg35
I54
ssg36
g4186
sg37
(lp4195
g39
asg40
I54
sg41
I2
sg42
S"Levi's Wi-Fi Network"
p4196
sbsS'90:72:40:15:71:2A'
p4197
g2
(g3
g4
Ntp4198
Rp4199
(dp4200
g8
(lp4201
g10
ag4197
aS' 2014-02-25 02:25:37'
p4202
aS'2014-02-25 02:26:05'
p4203
ag51
aS'54'
p4204
aS' WPA2'
p4205
aS'-81'
p4206
ag17
aS' Glen'
p4207
asg19
g10
sg20
I-81
sg21
g4197
sg22
S'WPA2'
p4208
sg24
S'2014-02-25 02:25:37'
p4209
sg26
I01
sg27
g17
sg28
(dp4210
g19
g10
sg30
g4197
sg31
I-81
sg32
(lp4211
g4202
ag4203
asg34
g4207
sg35
I54
ssg36
g4203
sg37
(lp4212
g39
asg40
I54
sg41
I6
sg42
S'Glen'
p4213
sbsS'AC:22:0B:32:FF:D8'
p4214
g2
(g3
g4
Ntp4215
Rp4216
(dp4217
g8
(lp4218
g10
ag4214
aS' 2014-02-25 02:07:43'
p4219
aS'2014-02-25 02:26:53'
p4220
aS'11'
p4221
aS'54'
p4222
aS' WPA2'
p4223
aS'-88'
p4224
ag17
aS' Direct Agents 2'
p4225
asg19
g10
sg20
I-88
sg21
g4214
sg22
S'WPA2'
p4226
sg24
S'2014-02-25 02:07:43'
p4227
sg26
I01
sg27
g17
sg28
(dp4228
g19
g10
sg30
g4214
sg31
I-88
sg32
(lp4229
g4219
ag4220
asg34
g4225
sg35
I54
ssg36
g4220
sg37
(lp4230
g39
asg40
I54
sg41
I11
sg42
S'Direct Agents 2'
p4231
sbsS'12:03:08:93:6B:BA'
p4232
g2
(g3
g4
Ntp4233
Rp4234
(dp4235
g8
(lp4236
g10
ag4232
aS' 2014-02-25 02:26:05'
p4237
aS'2014-02-25 02:26:05'
p4238
aS'11'
p4239
aS'54'
p4240
aS' OPN '
p4241
aS'-16'
p4242
ag17
aS' \x00\x00\x00\x00\x00\x00\x00\x00\x00\x00'
p4243
asg19
g10
sg20
I-16
sg21
g4232
sg22
S'OPN'
p4244
sg24
S'2014-02-25 02:26:05'
p4245
sg26
I01
sg27
g17
sg28
(dp4246
g19
g10
sg30
g4232
sg31
I-16
sg32
(lp4247
g4237
ag4238
asg34
g4243
sg35
I54
ssg36
g4238
sg37
(lp4248
g39
asg40
I54
sg41
I11
sg42
S'\x00\x00\x00\x00\x00\x00\x00\x00\x00\x00'
p4249
sbsS'20:4E:7F:29:EF:8E'
p4250
g2
(g3
g4
Ntp4251
Rp4252
(dp4253
g8
(lp4254
g10
ag4250
aS' 2014-02-25 02:09:42'
p4255
aS'2014-02-25 02:31:07'
p4256
ag728
aS'54'
p4257
aS' WPA2'
p4258
aS'-80'
p4259
ag17
aS' SummersNetwork'
p4260
asg19
g10
sg20
I-80
sg21
g4250
sg22
S'WPA2'
p4261
sg24
S'2014-02-25 02:09:42'
p4262
sg26
I01
sg27
g17
sg28
(dp4263
g19
g10
sg30
g4250
sg31
I-80
sg32
(lp4264
g4255
ag4256
asg34
g4260
sg35
I54
ssg36
g4256
sg37
(lp4265
g39
asg40
I54
sg41
I2
sg42
S'SummersNetwork'
p4266
sbsS'FA:8F:CA:32:DF:5C'
p4267
g2
(g3
g4
Ntp4268
Rp4269
(dp4270
g8
(lp4271
g10
ag4267
aS' 2014-02-25 02:07:36'
p4272
aS'2014-02-25 02:31:17'
p4273
ag51
aS'54'
p4274
aS' OPN '
p4275
aS'-69'
p4276
ag17
aS' Chromecast1199'
p4277
asg19
g10
sg20
I-69
sg21
g4267
sg22
S'OPN'
p4278
sg24
S'2014-02-25 02:07:36'
p4279
sg26
I01
sg27
g17
sg28
(dp4280
g19
g10
sg30
g4267
sg31
I-69
sg32
(lp4281
g4272
ag4273
asg34
g4277
sg35
I54
ssg36
g4273
sg37
(lp4282
g39
asg40
I54
sg41
I6
sg42
S'Chromecast1199'
p4283
sbsS'04:C5:A4:92:51:52'
p4284
g2
(g3
g4
Ntp4285
Rp4286
(dp4287
g8
(lp4288
g10
ag4284
aS' 2014-02-25 02:25:08'
p4289
aS'2014-02-25 02:25:18'
p4290
aS'11'
p4291
aS'54'
p4292
aS' OPN '
p4293
aS'-75'
p4294
ag17
aS' NYU-ROAM3'
p4295
asg19
g10
sg20
I-75
sg21
g4284
sg22
S'OPN'
p4296
sg24
S'2014-02-25 02:25:08'
p4297
sg26
I01
sg27
g17
sg28
(dp4298
g19
g10
sg30
g4284
sg31
I-75
sg32
(lp4299
g4289
ag4290
asg34
g4295
sg35
I54
ssg36
g4290
sg37
(lp4300
g39
asg40
I54
sg41
I11
sg42
S'NYU-ROAM3'
p4301
sbsS'04:C5:A4:92:51:53'
p4302
g2
(g3
g4
Ntp4303
Rp4304
(dp4305
g8
(lp4306
g10
ag4302
aS' 2014-02-25 02:25:17'
p4307
aS'2014-02-25 02:25:18'
p4308
aS'11'
p4309
aS'54'
p4310
aS' OPN '
p4311
aS'-73'
p4312
ag17
aS' nyupda'
p4313
asg19
g10
sg20
I-73
sg21
g4302
sg22
S'OPN'
p4314
sg24
S'2014-02-25 02:25:17'
p4315
sg26
I01
sg27
g17
sg28
(dp4316
g19
g10
sg30
g4302
sg31
I-73
sg32
(lp4317
g4307
ag4308
asg34
g4313
sg35
I54
ssg36
g4308
sg37
(lp4318
g39
asg40
I54
sg41
I11
sg42
S'nyupda'
p4319
sbsS'04:C5:A4:92:51:51'
p4320
g2
(g3
g4
Ntp4321
Rp4322
(dp4323
g8
(lp4324
g10
ag4320
aS' 2014-02-25 02:25:08'
p4325
aS'2014-02-25 02:25:18'
p4326
aS'11'
p4327
aS'54'
p4328
aS' OPN '
p4329
aS'-76'
p4330
ag17
aS' nyuguest'
p4331
asg19
g10
sg20
I-76
sg21
g4320
sg22
S'OPN'
p4332
sg24
S'2014-02-25 02:25:08'
p4333
sg26
I01
sg27
g17
sg28
(dp4334
g19
g10
sg30
g4320
sg31
I-76
sg32
(lp4335
g4325
ag4326
asg34
g4331
sg35
I54
ssg36
g4326
sg37
(lp4336
g39
asg40
I54
sg41
I11
sg42
S'nyuguest'
p4337
sbsS'84:1B:5E:4B:01:E2'
p4338
g2
(g3
g4
Ntp4339
Rp4340
(dp4341
g8
(lp4342
g10
ag4338
aS' 2014-03-02 23:42:43'
p4343
aS'2014-03-02 23:50:31'
p4344
aS'11'
p4345
aS'54'
p4346
aS' WPA2WPA '
p4347
aS'-90'
p4348
ag17
aS' 4B01E3'
p4349
asg19
g10
sg20
I-90
sg21
g4338
sg22
g4347
sg24
g4343
sg26
I01
sg27
g17
sg28
(dp4350
g19
g10
sg30
g4338
sg31
I-90
sg32
g4344
sg34
S' 4B01E3'
p4351
sg35
I54
ssg36
g4344
sg37
g73
sg40
I54
sg41
I11
sg42
g4349
sbsS'B8:E9:37:59:E2:DF'
p4352
g2
(g3
g4
Ntp4353
Rp4354
(dp4355
g8
(lp4356
g10
ag4352
aS' 2014-02-25 02:08:11'
p4357
aS'2014-02-25 02:24:42'
p4358
aS'158'
p4359
aS'-1'
p4360
aS' WPA '
p4361
aS'-128'
p4362
ag17
ag73
asg19
g10
sg20
I-128
sg21
g4352
sg22
S'WPA'
p4363
sg24
S'2014-02-25 02:08:11'
p4364
sg26
I01
sg27
g17
sg28
(dp4365
g19
g10
sg30
g4352
sg31
I-128
sg32
(lp4366
g4357
ag4358
asg34
g73
sg35
I-1
ssg36
g4358
sg37
(lp4367
g39
asg40
I-1
sg41
I158
sg42
g39
sbsS'E0:46:9A:51:BE:EB'
p4368
g2
(g3
g4
Ntp4369
Rp4370
(dp4371
g8
(lp4372
g10
ag4368
aS' 2014-02-25 02:07:42'
p4373
aS'2014-02-25 02:31:14'
p4374
ag1074
aS'54'
p4375
aS' WPA2'
p4376
aS'-87'
p4377
ag17
aS" ADK's Web"
p4378
asg19
g10
sg20
I-87
sg21
g4368
sg22
S'WPA2'
p4379
sg24
S'2014-02-25 02:07:42'
p4380
sg26
I01
sg27
g17
sg28
(dp4381
g19
g10
sg30
g4368
sg31
I-87
sg32
(lp4382
g4373
ag4374
asg34
g4378
sg35
I54
ssg36
g4374
sg37
(lp4383
g39
asg40
I54
sg41
I5
sg42
S"ADK's Web"
p4384
sbsS'08:86:3B:89:8A:BC'
p4385
g2
(g3
g4
Ntp4386
Rp4387
(dp4388
g8
(lp4389
g10
ag4385
aS' 2014-03-02 23:22:50'
p4390
aS'2014-03-02 23:23:20'
p4391
ag13
aS'54'
p4392
aS' WPA2WPA '
p4393
aS'-89'
p4394
ag17
aS' belkin.cac_xt'
p4395
asg19
g10
sg20
I-89
sg21
g4385
sg22
S'WPA2WPA'
p4396
sg24
S'2014-03-02 23:22:50'
p4397
sg26
I01
sg27
g17
sg28
(dp4398
g19
g10
sg30
g4385
sg31
I-89
sg32
(lp4399
g4390
ag4391
asg34
g4395
sg35
I54
ssg36
g4391
sg37
(lp4400
g39
asg40
I54
sg41
I1
sg42
S'belkin.cac_xt'
p4401
sbsS'20:4E:7F:7F:3F:54'
p4402
g2
(g3
g4
Ntp4403
Rp4404
(dp4405
g8
(lp4406
g10
ag4402
aS' 2014-03-02 23:43:00'
p4407
aS'2014-03-02 23:49:55'
p4408
ag1861
aS'54'
p4409
aS' WPA2'
p4410
aS'-92'
p4411
ag17
aS' MONIC_Network'
p4412
asg19
g10
sg20
I-92
sg21
g4402
sg22
g4410
sg24
g4407
sg26
I01
sg27
g17
sg28
(dp4413
g19
g10
sg30
g4402
sg31
I-92
sg32
g4408
sg34
S' MONIC_Network'
p4414
sg35
I54
ssg36
g4408
sg37
g73
sg40
I54
sg41
I4
sg42
g4412
sbsS'C8:D7:19:AF:71:D4'
p4415
g2
(g3
g4
Ntp4416
Rp4417
(dp4418
g8
(lp4419
g10
ag4415
aS' 2014-02-25 02:07:41'
p4420
aS'2014-02-25 02:31:13'
p4421
aS'10'
p4422
aS'54'
p4423
aS' WPA2WPA '
p4424
aS'-79'
p4425
ag17
aS' YankeesSuck2'
p4426
asg19
g10
sg20
I-79
sg21
g4415
sg22
S'WPA2WPA'
p4427
sg24
S'2014-02-25 02:07:41'
p4428
sg26
I01
sg27
g17
sg28
(dp4429
g19
g10
sg30
g4415
sg31
I-79
sg32
(lp4430
g4420
ag4421
asg34
g4426
sg35
I54
ssg36
g4421
sg37
(lp4431
g39
asg40
I54
sg41
I10
sg42
S'YankeesSuck2'
p4432
sbsS'A0:21:B7:82:12:8C'
p4433
g2
(g3
g4
Ntp4434
Rp4435
(dp4436
g8
(lp4437
g10
ag4433
aS' 2014-03-02 23:51:49'
p4438
aS'2014-03-02 23:51:58'
p4439
ag13
aS'54'
p4440
aS' WPA2WPA '
p4441
aS'-89'
p4442
ag17
aS' 82128D'
p4443
asg19
g10
sg20
I-89
sg21
g4433
sg22
g4441
sg24
g4438
sg26
I01
sg27
g17
sg28
(dp4444
g19
g10
sg30
g4433
sg31
I-89
sg32
g4439
sg34
S' 82128D'
p4445
sg35
I54
ssg36
g4439
sg37
g73
sg40
I54
sg41
I1
sg42
g4443
sbsS'94:44:52:F7:C9:24'
p4446
g2
(g3
g4
Ntp4447
Rp4448
(dp4449
g8
(lp4450
g10
ag4446
aS' 2014-03-02 23:42:20'
p4451
aS'2014-03-02 23:58:24'
p4452
aS'11'
p4453
aS'54'
p4454
aS' WPA2WPA '
p4455
aS'-86'
p4456
ag17
aS' belkin.924'
p4457
asg19
g10
sg20
I-86
sg21
g4446
sg22
g4455
sg24
g4451
sg26
I01
sg27
g17
sg28
(dp4458
g19
g10
sg30
g4446
sg31
I-86
sg32
g4452
sg34
S' belkin.924'
p4459
sg35
I54
ssg36
g4452
sg37
g73
sg40
I54
sg41
I11
sg42
g4457
sbsS'48:F8:B3:3A:59:C6'
p4460
g2
(g3
g4
Ntp4461
Rp4462
(dp4463
g8
(lp4464
g10
ag4460
aS' 2014-02-25 02:07:39'
p4465
aS'2014-02-25 02:31:19'
p4466
ag4152
aS'54'
p4467
aS' WPA2WPA '
p4468
aS'-87'
p4469
ag17
aS' 4E'
p4470
asg19
g10
sg20
I-87
sg21
g4460
sg22
S'WPA2WPA'
p4471
sg24
S'2014-02-25 02:07:39'
p4472
sg26
I01
sg27
g17
sg28
(dp4473
g19
g10
sg30
g4460
sg31
I-87
sg32
(lp4474
g4465
ag4466
asg34
g4470
sg35
I54
ssg36
g4466
sg37
(lp4475
g39
asg40
I54
sg41
I3
sg42
S'4E'
p4476
sbsS'00:1B:2F:F6:6B:B0'
p4477
g2
(g3
g4
Ntp4478
Rp4479
(dp4480
g8
(lp4481
g10
ag4477
aS' 2014-02-25 02:08:13'
p4482
aS'2014-02-25 02:31:17'
p4483
ag13
aS'54'
p4484
aS' WPA '
p4485
aS'-83'
p4486
ag17
aS' tesuque'
p4487
asg19
g10
sg20
I-83
sg21
g4477
sg22
S'WPA'
p4488
sg24
S'2014-02-25 02:08:13'
p4489
sg26
I01
sg27
g17
sg28
(dp4490
g19
g10
sg30
g4477
sg31
I-83
sg32
(lp4491
g4482
ag4483
asg34
g4487
sg35
I54
ssg36
g4483
sg37
(lp4492
g39
asg40
I54
sg41
I1
sg42
S'tesuque'
p4493
sbsS'08:86:3B:14:0B:E0'
p4494
g2
(g3
g4
Ntp4495
Rp4496
(dp4497
g8
(lp4498
g10
ag4494
aS' 2014-02-25 02:08:13'
p4499
aS'2014-02-25 02:08:13'
p4500
ag13
aS'54'
p4501
aS' WPA2'
p4502
aS'-87'
p4503
ag17
aS' belkin.be0'
p4504
asg19
g10
sg20
I-87
sg21
g4494
sg22
S'WPA2'
p4505
sg24
S'2014-02-25 02:08:13'
p4506
sg26
I01
sg27
g17
sg28
(dp4507
g19
g10
sg30
g4494
sg31
I-87
sg32
(lp4508
g4499
ag4500
asg34
g4504
sg35
I54
ssg36
g4500
sg37
(lp4509
g39
asg40
I54
sg41
I1
sg42
S'belkin.be0'
p4510
sbsS'B0:B2:DC:DB:D6:D8'
p4511
g2
(g3
g4
Ntp4512
Rp4513
(dp4514
g8
(lp4515
g10
ag4511
aS' 2014-02-25 02:26:35'
p4516
aS'2014-02-25 02:29:46'
p4517
ag13
aS'54'
p4518
aS' WPA2'
p4519
aS'-89'
p4520
ag17
aS' NY10003_Secure_30'
p4521
asg19
g10
sg20
I-89
sg21
g4511
sg22
S'WPA2'
p4522
sg24
S'2014-02-25 02:26:35'
p4523
sg26
I01
sg27
g17
sg28
(dp4524
g19
g10
sg30
g4511
sg31
I-89
sg32
(lp4525
g4516
ag4517
asg34
g4521
sg35
I54
ssg36
g4517
sg37
(lp4526
g39
asg40
I54
sg41
I1
sg42
S'NY10003_Secure_30'
p4527
sbsS'04:C5:A4:C2:38:11'
p4528
g2
(g3
g4
Ntp4529
Rp4530
(dp4531
g8
(lp4532
g10
ag4528
aS' 2014-02-25 02:24:48'
p4533
aS'2014-02-25 02:25:30'
p4534
ag13
aS'54'
p4535
aS' OPN '
p4536
aS'-53'
p4537
ag17
aS' nyuguest'
p4538
asg19
g10
sg20
I-53
sg21
g4528
sg22
S'OPN'
p4539
sg24
S'2014-02-25 02:24:48'
p4540
sg26
I01
sg27
g17
sg28
(dp4541
g19
g10
sg30
g4528
sg31
I-53
sg32
(lp4542
g4533
ag4534
asg34
g4538
sg35
I54
ssg36
g4534
sg37
(lp4543
g39
asg40
I54
sg41
I1
sg42
S'nyuguest'
p4544
sbsS'04:C5:A4:C2:38:10'
p4545
g2
(g3
g4
Ntp4546
Rp4547
(dp4548
g8
(lp4549
g10
ag4545
aS' 2014-02-25 02:24:15'
p4550
aS'2014-02-25 02:26:07'
p4551
ag13
aS'54'
p4552
aS' WPA2WPA '
p4553
aS'-62'
p4554
ag17
aS' nyu'
p4555
asg19
g10
sg20
I-62
sg21
g4545
sg22
S'WPA2WPA'
p4556
sg24
S'2014-02-25 02:24:15'
p4557
sg26
I01
sg27
g17
sg28
(dp4558
g19
g10
sg30
g4545
sg31
I-62
sg32
(lp4559
g4550
ag4551
asg34
g4555
sg35
I54
ssg36
g4551
sg37
(lp4560
g39
asg40
I54
sg41
I1
sg42
S'nyu'
p4561
sbsS'04:C5:A4:C2:38:13'
p4562
g2
(g3
g4
Ntp4563
Rp4564
(dp4565
g8
(lp4566
g10
ag4562
aS' 2014-02-25 02:22:55'
p4567
aS'2014-02-25 02:26:07'
p4568
ag13
aS'54'
p4569
aS' OPN '
p4570
aS'-62'
p4571
ag17
aS' nyupda'
p4572
asg19
g10
sg20
I-62
sg21
g4562
sg22
S'OPN'
p4573
sg24
S'2014-02-25 02:22:55'
p4574
sg26
I01
sg27
g17
sg28
(dp4575
g19
g10
sg30
g4562
sg31
I-62
sg32
(lp4576
g4567
ag4568
asg34
g4572
sg35
I54
ssg36
g4568
sg37
(lp4577
g39
asg40
I54
sg41
I1
sg42
S'nyupda'
p4578
sbsS'04:C5:A4:C2:38:12'
p4579
g2
(g3
g4
Ntp4580
Rp4581
(dp4582
g8
(lp4583
g10
ag4579
aS' 2014-02-25 02:22:55'
p4584
aS'2014-02-25 02:26:07'
p4585
ag13
aS'54'
p4586
aS' OPN '
p4587
aS'-69'
p4588
ag17
aS' NYU-ROAM3'
p4589
asg19
g10
sg20
I-69
sg21
g4579
sg22
S'OPN'
p4590
sg24
S'2014-02-25 02:22:55'
p4591
sg26
I01
sg27
g17
sg28
(dp4592
g19
g10
sg30
g4579
sg31
I-69
sg32
(lp4593
g4584
ag4585
asg34
g4589
sg35
I54
ssg36
g4585
sg37
(lp4594
g39
asg40
I54
sg41
I1
sg42
S'NYU-ROAM3'
p4595
sbsS'58:6D:8F:10:C4:66'
p4596
g2
(g3
g4
Ntp4597
Rp4598
(dp4599
g8
(lp4600
g10
ag4596
aS' 2014-02-25 02:26:33'
p4601
aS'2014-02-25 02:31:14'
p4602
aS'11'
p4603
aS'54'
p4604
aS' WPA2WPA '
p4605
aS'-84'
p4606
ag17
aS' airporty3'
p4607
asg19
g10
sg20
I-84
sg21
g4596
sg22
S'WPA2WPA'
p4608
sg24
S'2014-02-25 02:26:33'
p4609
sg26
I01
sg27
g17
sg28
(dp4610
g19
g10
sg30
g4596
sg31
I-84
sg32
(lp4611
g4601
ag4602
asg34
g4607
sg35
I54
ssg36
g4602
sg37
(lp4612
g39
asg40
I54
sg41
I11
sg42
S'airporty3'
p4613
sbsS'2C:B0:5D:2E:5B:68'
p4614
g2
(g3
g4
Ntp4615
Rp4616
(dp4617
g8
(lp4618
g10
ag4614
aS' 2014-02-25 02:08:04'
p4619
aS'2014-02-25 02:31:05'
p4620
ag51
aS'54'
p4621
aS' WPA2'
p4622
aS'-85'
p4623
ag17
aS' 9G'
p4624
asg19
g10
sg20
I-85
sg21
g4614
sg22
S'WPA2'
p4625
sg24
S'2014-02-25 02:08:04'
p4626
sg26
I01
sg27
g17
sg28
(dp4627
g19
g10
sg30
g4614
sg31
I-85
sg32
(lp4628
g4619
ag4620
asg34
g4624
sg35
I54
ssg36
g4620
sg37
(lp4629
g39
asg40
I54
sg41
I6
sg42
S'9G'
p4630
sbsS'C0:C1:C0:11:A9:BD'
p4631
g2
(g3
g4
Ntp4632
Rp4633
(dp4634
g8
(lp4635
g10
ag4631
aS' 2014-02-25 02:08:13'
p4636
aS'2014-02-25 02:26:26'
p4637
ag13
aS'54'
p4638
aS' OPN '
p4639
aS'-85'
p4640
ag17
aS' jmcguirl-guest'
p4641
asg19
g10
sg20
I-85
sg21
g4631
sg22
S'OPN'
p4642
sg24
S'2014-02-25 02:08:13'
p4643
sg26
I01
sg27
g17
sg28
(dp4644
g19
g10
sg30
g4631
sg31
I-85
sg32
(lp4645
g4636
ag4637
asg34
g4641
sg35
I54
ssg36
g4637
sg37
(lp4646
g39
asg40
I54
sg41
I1
sg42
S'jmcguirl-guest'
p4647
sbsS'04:C5:A4:92:4F:12'
p4648
g2
(g3
g4
Ntp4649
Rp4650
(dp4651
g8
(lp4652
g10
ag4648
aS' 2014-02-25 02:22:53'
p4653
aS'2014-02-25 02:26:05'
p4654
ag51
aS'54'
p4655
aS' OPN '
p4656
aS'-61'
p4657
ag17
aS' NYU-ROAM3'
p4658
asg19
g10
sg20
I-61
sg21
g4648
sg22
S'OPN'
p4659
sg24
S'2014-02-25 02:22:53'
p4660
sg26
I01
sg27
g17
sg28
(dp4661
g19
g10
sg30
g4648
sg31
I-61
sg32
(lp4662
g4653
ag4654
asg34
g4658
sg35
I54
ssg36
g4654
sg37
(lp4663
g39
asg40
I54
sg41
I6
sg42
S'NYU-ROAM3'
p4664
sbsS'04:C5:A4:92:4F:13'
p4665
g2
(g3
g4
Ntp4666
Rp4667
(dp4668
g8
(lp4669
g10
ag4665
aS' 2014-02-25 02:22:53'
p4670
aS'2014-02-25 02:26:05'
p4671
ag51
aS'54'
p4672
aS' OPN '
p4673
aS'-66'
p4674
ag17
aS' nyupda'
p4675
asg19
g10
sg20
I-66
sg21
g4665
sg22
S'OPN'
p4676
sg24
S'2014-02-25 02:22:53'
p4677
sg26
I01
sg27
g17
sg28
(dp4678
g19
g10
sg30
g4665
sg31
I-66
sg32
(lp4679
g4670
ag4671
asg34
g4675
sg35
I54
ssg36
g4671
sg37
(lp4680
g39
asg40
I54
sg41
I6
sg42
S'nyupda'
p4681
sbsS'04:C5:A4:92:4F:10'
p4682
g2
(g3
g4
Ntp4683
Rp4684
(dp4685
g8
(lp4686
g10
ag4682
aS' 2014-02-25 02:13:10'
p4687
aS'2014-02-25 02:26:05'
p4688
ag51
aS'54'
p4689
aS' WPA2WPA '
p4690
aS'-65'
p4691
ag17
aS' nyu'
p4692
asg19
g10
sg20
I-65
sg21
g4682
sg22
S'WPA2WPA'
p4693
sg24
S'2014-02-25 02:13:10'
p4694
sg26
I01
sg27
g17
sg28
(dp4695
g19
g10
sg30
g4682
sg31
I-65
sg32
(lp4696
g4687
ag4688
asg34
g4692
sg35
I54
ssg36
g4688
sg37
(lp4697
g39
asg40
I54
sg41
I6
sg42
S'nyu'
p4698
sbsS'04:C5:A4:92:4F:11'
p4699
g2
(g3
g4
Ntp4700
Rp4701
(dp4702
g8
(lp4703
g10
ag4699
aS' 2014-02-25 02:23:15'
p4704
aS'2014-02-25 02:26:05'
p4705
ag51
aS'54'
p4706
aS' OPN '
p4707
aS'-62'
p4708
ag17
aS' nyuguest'
p4709
asg19
g10
sg20
I-62
sg21
g4699
sg22
S'OPN'
p4710
sg24
S'2014-02-25 02:23:15'
p4711
sg26
I01
sg27
g17
sg28
(dp4712
g19
g10
sg30
g4699
sg31
I-62
sg32
(lp4713
g4704
ag4705
asg34
g4709
sg35
I54
ssg36
g4705
sg37
(lp4714
g39
asg40
I54
sg41
I6
sg42
S'nyuguest'
p4715
sbsS'1C:AF:F7:D6:0E:0F'
p4716
g2
(g3
g4
Ntp4717
Rp4718
(dp4719
g8
(lp4720
g10
ag4716
aS' 2014-03-02 23:42:17'
p4721
aS'2014-03-02 23:58:23'
p4722
ag4152
aS'54'
p4723
aS' WEP '
p4724
aS'-30'
p4725
ag17
aS' Flying Spaghetti'
p4726
asg19
g10
sg20
I-30
sg21
g4716
sg22
g4724
sg24
g4721
sg26
I01
sg27
g17
sg28
(dp4727
g19
g10
sg30
g4716
sg31
I-30
sg32
g4722
sg34
S' Flying Spaghetti'
p4728
sg35
I54
ssg36
g4722
sg37
g73
sg40
I54
sg41
I3
sg42
g4726
sbsS'C0:C1:C0:8F:5F:01'
p4729
g2
(g3
g4
Ntp4730
Rp4731
(dp4732
g8
(lp4733
g10
ag4729
aS' 2014-02-25 02:07:43'
p4734
aS'2014-02-25 02:31:14'
p4735
aS'11'
p4736
aS'54'
p4737
aS' WPA2WPA '
p4738
aS'-86'
p4739
ag17
aS' pemberly'
p4740
asg19
g10
sg20
I-86
sg21
g4729
sg22
S'WPA2WPA'
p4741
sg24
S'2014-02-25 02:07:43'
p4742
sg26
I01
sg27
g17
sg28
(dp4743
g19
g10
sg30
g4729
sg31
I-86
sg32
(lp4744
g4734
ag4735
asg34
g4740
sg35
I54
ssg36
g4735
sg37
(lp4745
g39
asg40
I54
sg41
I11
sg42
S'pemberly'
p4746
sbsS'C0:C1:C0:8F:61:19'
p4747
g2
(g3
g4
Ntp4748
Rp4749
(dp4750
g8
(lp4751
g10
ag4747
aS' 2014-02-25 02:08:10'
p4752
aS'2014-02-25 02:20:01'
p4753
aS'11'
p4754
aS'54'
p4755
aS' WPA2WPA '
p4756
aS'-84'
p4757
ag17
aS' Diamkush'
p4758
asg19
g10
sg20
I-84
sg21
g4747
sg22
S'WPA2WPA'
p4759
sg24
S'2014-02-25 02:08:10'
p4760
sg26
I01
sg27
g17
sg28
(dp4761
g19
g10
sg30
g4747
sg31
I-84
sg32
(lp4762
g4752
ag4753
asg34
g4758
sg35
I54
ssg36
g4753
sg37
(lp4763
g39
asg40
I54
sg41
I11
sg42
S'Diamkush'
p4764
sbsS'00:25:BC:8A:F3:4B'
p4765
g2
(g3
g4
Ntp4766
Rp4767
(dp4768
g8
(lp4769
g10
ag4765
aS' 2014-02-25 02:07:51'
p4770
aS'2014-02-25 02:09:29'
p4771
ag1074
aS'54'
p4772
aS' WPA2'
p4773
aS'-88'
p4774
ag17
aS' WLAN11'
p4775
asg19
g10
sg20
I-88
sg21
g4765
sg22
S'WPA2'
p4776
sg24
S'2014-02-25 02:07:51'
p4777
sg26
I01
sg27
g17
sg28
(dp4778
g19
g10
sg30
g4765
sg31
I-88
sg32
(lp4779
g4770
ag4771
asg34
g4775
sg35
I54
ssg36
g4771
sg37
(lp4780
g39
asg40
I54
sg41
I5
sg42
S'WLAN11'
p4781
sbsS'E8:8D:28:5F:2C:83'
p4782
g2
(g3
g4
Ntp4783
Rp4784
(dp4785
g8
(lp4786
g10
ag4782
aS' 2014-02-25 02:12:41'
p4787
aS'2014-02-25 02:20:40'
p4788
ag51
aS'54'
p4789
aS' WPA2WPA '
p4790
aS'-89'
p4791
ag17
aS' 5J'
p4792
asg19
g10
sg20
I-89
sg21
g4782
sg22
S'WPA2WPA'
p4793
sg24
S'2014-02-25 02:12:41'
p4794
sg26
I01
sg27
g17
sg28
(dp4795
g19
g10
sg30
g4782
sg31
I-89
sg32
(lp4796
g4787
ag4788
asg34
g4792
sg35
I54
ssg36
g4788
sg37
(lp4797
g39
asg40
I54
sg41
I6
sg42
S'5J'
p4798
sbsS'04:C5:A4:92:57:D3'
p4799
g2
(g3
g4
Ntp4800
Rp4801
(dp4802
g8
(lp4803
g10
ag4799
aS' 2014-02-25 02:25:10'
p4804
aS'2014-02-25 02:25:30'
p4805
ag13
aS'54'
p4806
aS' OPN '
p4807
aS'-69'
p4808
ag17
aS' nyupda'
p4809
asg19
g10
sg20
I-69
sg21
g4799
sg22
S'OPN'
p4810
sg24
S'2014-02-25 02:25:10'
p4811
sg26
I01
sg27
g17
sg28
(dp4812
g19
g10
sg30
g4799
sg31
I-69
sg32
(lp4813
g4804
ag4805
asg34
g4809
sg35
I54
ssg36
g4805
sg37
(lp4814
g39
asg40
I54
sg41
I1
sg42
S'nyupda'
p4815
sbsS'04:C5:A4:92:57:D2'
p4816
g2
(g3
g4
Ntp4817
Rp4818
(dp4819
g8
(lp4820
g10
ag4816
aS' 2014-02-25 02:25:10'
p4821
aS'2014-02-25 02:25:29'
p4822
ag13
aS'54'
p4823
aS' OPN '
p4824
aS'-71'
p4825
ag17
aS' NYU-ROAM3'
p4826
asg19
g10
sg20
I-71
sg21
g4816
sg22
S'OPN'
p4827
sg24
S'2014-02-25 02:25:10'
p4828
sg26
I01
sg27
g17
sg28
(dp4829
g19
g10
sg30
g4816
sg31
I-71
sg32
(lp4830
g4821
ag4822
asg34
g4826
sg35
I54
ssg36
g4822
sg37
(lp4831
g39
asg40
I54
sg41
I1
sg42
S'NYU-ROAM3'
p4832
sbsS'04:C5:A4:92:57:D1'
p4833
g2
(g3
g4
Ntp4834
Rp4835
(dp4836
g8
(lp4837
g10
ag4833
aS' 2014-02-25 02:25:10'
p4838
aS'2014-02-25 02:25:30'
p4839
ag13
aS'54'
p4840
aS' OPN '
p4841
aS'-72'
p4842
ag17
aS' nyuguest'
p4843
asg19
g10
sg20
I-72
sg21
g4833
sg22
S'OPN'
p4844
sg24
S'2014-02-25 02:25:10'
p4845
sg26
I01
sg27
g17
sg28
(dp4846
g19
g10
sg30
g4833
sg31
I-72
sg32
(lp4847
g4838
ag4839
asg34
g4843
sg35
I54
ssg36
g4839
sg37
(lp4848
g39
asg40
I54
sg41
I1
sg42
S'nyuguest'
p4849
sbsS'04:C5:A4:92:57:D0'
p4850
g2
(g3
g4
Ntp4851
Rp4852
(dp4853
g8
(lp4854
g10
ag4850
aS' 2014-02-25 02:22:52'
p4855
aS'2014-02-25 02:25:30'
p4856
ag13
aS'54'
p4857
aS' WPA2WPA OPN '
p4858
aS'-70'
p4859
ag17
aS' nyu'
p4860
asg19
g10
sg20
I-70
sg21
g4850
sg22
S'WPA2WPA OPN'
p4861
sg24
S'2014-02-25 02:22:52'
p4862
sg26
I01
sg27
g17
sg28
(dp4863
g19
g10
sg30
g4850
sg31
I-70
sg32
(lp4864
g4855
ag4856
asg34
g4860
sg35
I54
ssg36
g4856
sg37
(lp4865
g39
asg40
I54
sg41
I1
sg42
S'nyu'
p4866
sbsS'EC:1A:59:A2:CC:23'
p4867
g2
(g3
g4
Ntp4868
Rp4869
(dp4870
g8
(lp4871
g10
ag4867
aS' 2014-02-25 02:18:56'
p4872
aS'2014-02-25 02:27:43'
p4873
ag51
aS'54'
p4874
aS' WPA2'
p4875
aS'-89'
p4876
ag17
aS' ISISHQ'
p4877
asg19
g10
sg20
I-89
sg21
g4867
sg22
S'WPA2'
p4878
sg24
S'2014-02-25 02:18:56'
p4879
sg26
I01
sg27
g17
sg28
(dp4880
g19
g10
sg30
g4867
sg31
I-89
sg32
(lp4881
g4872
ag4873
asg34
g4877
sg35
I54
ssg36
g4873
sg37
(lp4882
g39
asg40
I54
sg41
I6
sg42
S'ISISHQ'
p4883
sbsS'04:C5:A4:81:D4:21'
p4884
g2
(g3
g4
Ntp4885
Rp4886
(dp4887
g8
(lp4888
g10
ag4884
aS' 2014-02-25 02:17:59'
p4889
aS'2014-02-25 02:21:27'
p4890
ag51
aS'54'
p4891
aS' OPN '
p4892
aS'-79'
p4893
ag17
aS' nyuguest'
p4894
asg19
g10
sg20
I-79
sg21
g4884
sg22
S'OPN'
p4895
sg24
S'2014-02-25 02:17:59'
p4896
sg26
I01
sg27
g17
sg28
(dp4897
g19
g10
sg30
g4884
sg31
I-79
sg32
(lp4898
g4889
ag4890
asg34
g4894
sg35
I54
ssg36
g4890
sg37
(lp4899
g39
asg40
I54
sg41
I6
sg42
S'nyuguest'
p4900
sbsS'04:C5:A4:81:D4:20'
p4901
g2
(g3
g4
Ntp4902
Rp4903
(dp4904
g8
(lp4905
g10
ag4901
aS' 2014-02-25 02:10:36'
p4906
aS'2014-02-25 02:22:24'
p4907
ag51
aS'54'
p4908
aS' WPA2WPA '
p4909
aS'-82'
p4910
ag17
aS' nyu'
p4911
asg19
g10
sg20
I-82
sg21
g4901
sg22
S'WPA2WPA'
p4912
sg24
S'2014-02-25 02:10:36'
p4913
sg26
I01
sg27
g17
sg28
(dp4914
g19
g10
sg30
g4901
sg31
I-82
sg32
(lp4915
g4906
ag4907
asg34
g4911
sg35
I54
ssg36
g4907
sg37
(lp4916
g39
asg40
I54
sg41
I6
sg42
S'nyu'
p4917
sbsS'04:C5:A4:81:D4:23'
p4918
g2
(g3
g4
Ntp4919
Rp4920
(dp4921
g8
(lp4922
g10
ag4918
aS' 2014-02-25 02:14:28'
p4923
aS'2014-02-25 02:22:14'
p4924
ag51
aS'54'
p4925
aS' OPN '
p4926
aS'-83'
p4927
ag17
aS' nyupda'
p4928
asg19
g10
sg20
I-83
sg21
g4918
sg22
S'OPN'
p4929
sg24
S'2014-02-25 02:14:28'
p4930
sg26
I01
sg27
g17
sg28
(dp4931
g19
g10
sg30
g4918
sg31
I-83
sg32
(lp4932
g4923
ag4924
asg34
g4928
sg35
I54
ssg36
g4924
sg37
(lp4933
g39
asg40
I54
sg41
I6
sg42
S'nyupda'
p4934
sbsS'04:C5:A4:81:D4:22'
p4935
g2
(g3
g4
Ntp4936
Rp4937
(dp4938
g8
(lp4939
g10
ag4935
aS' 2014-02-25 02:10:45'
p4940
aS'2014-02-25 02:22:14'
p4941
ag51
aS'54'
p4942
aS' OPN '
p4943
aS'-80'
p4944
ag17
aS' NYU-ROAM3'
p4945
asg19
g10
sg20
I-80
sg21
g4935
sg22
S'OPN'
p4946
sg24
S'2014-02-25 02:10:45'
p4947
sg26
I01
sg27
g17
sg28
(dp4948
g19
g10
sg30
g4935
sg31
I-80
sg32
(lp4949
g4940
ag4941
asg34
g4945
sg35
I54
ssg36
g4941
sg37
(lp4950
g39
asg40
I54
sg41
I6
sg42
S'NYU-ROAM3'
p4951
sbsS'08:17:35:DD:C3:41'
p4952
g2
(g3
g4
Ntp4953
Rp4954
(dp4955
g8
(lp4956
g10
ag4952
aS' 2014-02-25 02:25:09'
p4957
aS'2014-02-25 02:25:09'
p4958
ag51
aS'54'
p4959
aS' OPN '
p4960
aS'-78'
p4961
ag17
aS' nyuguest'
p4962
asg19
g10
sg20
I-78
sg21
g4952
sg22
S'OPN'
p4963
sg24
S'2014-02-25 02:25:09'
p4964
sg26
I01
sg27
g17
sg28
(dp4965
g19
g10
sg30
g4952
sg31
I-78
sg32
(lp4966
g4957
ag4958
asg34
g4962
sg35
I54
ssg36
g4958
sg37
(lp4967
g39
asg40
I54
sg41
I6
sg42
S'nyuguest'
p4968
sbsS'08:17:35:DD:C3:40'
p4969
g2
(g3
g4
Ntp4970
Rp4971
(dp4972
g8
(lp4973
g10
ag4969
aS' 2014-02-25 02:25:09'
p4974
aS'2014-02-25 02:25:09'
p4975
ag51
aS'54'
p4976
aS' WPA2WPA '
p4977
aS'-79'
p4978
ag17
aS' nyu'
p4979
asg19
g10
sg20
I-79
sg21
g4969
sg22
S'WPA2WPA'
p4980
sg24
S'2014-02-25 02:25:09'
p4981
sg26
I01
sg27
g17
sg28
(dp4982
g19
g10
sg30
g4969
sg31
I-79
sg32
(lp4983
g4974
ag4975
asg34
g4979
sg35
I54
ssg36
g4975
sg37
(lp4984
g39
asg40
I54
sg41
I6
sg42
S'nyu'
p4985
sbsS'08:17:35:DD:C3:43'
p4986
g2
(g3
g4
Ntp4987
Rp4988
(dp4989
g8
(lp4990
g10
ag4986
aS' 2014-02-25 02:25:09'
p4991
aS'2014-02-25 02:25:09'
p4992
ag51
aS'54'
p4993
aS' OPN '
p4994
aS'-78'
p4995
ag17
aS' nyupda'
p4996
asg19
g10
sg20
I-78
sg21
g4986
sg22
S'OPN'
p4997
sg24
S'2014-02-25 02:25:09'
p4998
sg26
I01
sg27
g17
sg28
(dp4999
g19
g10
sg30
g4986
sg31
I-78
sg32
(lp5000
g4991
ag4992
asg34
g4996
sg35
I54
ssg36
g4992
sg37
(lp5001
g39
asg40
I54
sg41
I6
sg42
S'nyupda'
p5002
sbsS'08:17:35:DD:C3:42'
p5003
g2
(g3
g4
Ntp5004
Rp5005
(dp5006
g8
(lp5007
g10
ag5003
aS' 2014-02-25 02:25:09'
p5008
aS'2014-02-25 02:25:09'
p5009
ag51
aS'54'
p5010
aS' OPN '
p5011
aS'-78'
p5012
ag17
aS' NYU-ROAM3'
p5013
asg19
g10
sg20
I-78
sg21
g5003
sg22
S'OPN'
p5014
sg24
S'2014-02-25 02:25:09'
p5015
sg26
I01
sg27
g17
sg28
(dp5016
g19
g10
sg30
g5003
sg31
I-78
sg32
(lp5017
g5008
ag5009
asg34
g5013
sg35
I54
ssg36
g5009
sg37
(lp5018
g39
asg40
I54
sg41
I6
sg42
S'NYU-ROAM3'
p5019
sbsS'04:C5:A4:92:5A:81'
p5020
g2
(g3
g4
Ntp5021
Rp5022
(dp5023
g8
(lp5024
g10
ag5020
aS' 2014-02-25 02:07:43'
p5025
aS'2014-02-25 02:31:15'
p5026
ag51
aS'54'
p5027
aS' OPN '
p5028
aS'-88'
p5029
ag17
aS' nyuguest'
p5030
asg19
g10
sg20
I-88
sg21
g5020
sg22
S'OPN'
p5031
sg24
S'2014-02-25 02:07:43'
p5032
sg26
I01
sg27
g17
sg28
(dp5033
g19
g10
sg30
g5020
sg31
I-88
sg32
(lp5034
g5025
ag5026
asg34
g5030
sg35
I54
ssg36
g5026
sg37
(lp5035
g39
asg40
I54
sg41
I6
sg42
S'nyuguest'
p5036
sbsS'04:C5:A4:92:5A:80'
p5037
g2
(g3
g4
Ntp5038
Rp5039
(dp5040
g8
(lp5041
g10
ag5037
aS' 2014-02-25 02:07:36'
p5042
aS'2014-02-25 02:31:15'
p5043
ag51
aS'54'
p5044
aS' WPA2WPA '
p5045
aS'-53'
p5046
ag17
aS' nyu'
p5047
asg19
g10
sg20
I-53
sg21
g5037
sg22
S'WPA2WPA'
p5048
sg24
S'2014-02-25 02:07:36'
p5049
sg26
I01
sg27
g17
sg28
(dp5050
g19
g10
sg30
g5037
sg31
I-53
sg32
(lp5051
g5042
ag5043
asg34
g5047
sg35
I54
ssg36
g5043
sg37
(lp5052
g39
asg40
I54
sg41
I6
sg42
S'nyu'
p5053
sbsS'04:C5:A4:92:5A:83'
p5054
g2
(g3
g4
Ntp5055
Rp5056
(dp5057
g8
(lp5058
g10
ag5054
aS' 2014-02-25 02:07:43'
p5059
aS'2014-02-25 02:30:55'
p5060
ag51
aS'54'
p5061
aS' OPN '
p5062
aS'-53'
p5063
ag17
aS' nyupda'
p5064
asg19
g10
sg20
I-53
sg21
g5054
sg22
S'OPN'
p5065
sg24
S'2014-02-25 02:07:43'
p5066
sg26
I01
sg27
g17
sg28
(dp5067
g19
g10
sg30
g5054
sg31
I-53
sg32
(lp5068
g5059
ag5060
asg34
g5064
sg35
I54
ssg36
g5060
sg37
(lp5069
g39
asg40
I54
sg41
I6
sg42
S'nyupda'
p5070
sbsS'04:C5:A4:92:5A:82'
p5071
g2
(g3
g4
Ntp5072
Rp5073
(dp5074
g8
(lp5075
g10
ag5071
aS' 2014-02-25 02:07:43'
p5076
aS'2014-02-25 02:31:15'
p5077
ag51
aS'54'
p5078
aS' OPN '
p5079
aS'-52'
p5080
ag17
aS' NYU-ROAM3'
p5081
asg19
g10
sg20
I-52
sg21
g5071
sg22
S'OPN'
p5082
sg24
S'2014-02-25 02:07:43'
p5083
sg26
I01
sg27
g17
sg28
(dp5084
g19
g10
sg30
g5071
sg31
I-52
sg32
(lp5085
g5076
ag5077
asg34
g5081
sg35
I54
ssg36
g5077
sg37
(lp5086
g39
asg40
I54
sg41
I6
sg42
S'NYU-ROAM3'
p5087
sbsS'F8:7B:8C:14:31:49'
p5088
g2
(g3
g4
Ntp5089
Rp5090
(dp5091
g8
(lp5092
g10
ag5088
aS' 2014-03-02 23:42:24'
p5093
aS'2014-03-02 23:58:19'
p5094
aS'11'
p5095
aS'54'
p5096
aS' WPA2'
p5097
aS'-86'
p5098
ag17
aS' MayaNow'
p5099
asg19
g10
sg20
I-86
sg21
g5088
sg22
g5097
sg24
g5093
sg26
I01
sg27
g17
sg28
(dp5100
g19
g10
sg30
g5088
sg31
I-86
sg32
g5094
sg34
S' MayaNow'
p5101
sg35
I54
ssg36
g5094
sg37
g73
sg40
I54
sg41
I11
sg42
g5099
sbsS'04:C5:A4:80:C8:F0'
p5102
g2
(g3
g4
Ntp5103
Rp5104
(dp5105
g8
(lp5106
g10
ag5102
aS' 2014-02-25 02:20:48'
p5107
aS'2014-02-25 02:25:39'
p5108
ag13
aS'54'
p5109
aS' WPA2WPA OPN '
p5110
aS'-81'
p5111
ag17
aS' nyu'
p5112
asg19
g10
sg20
I-81
sg21
g5102
sg22
S'WPA2WPA OPN'
p5113
sg24
S'2014-02-25 02:20:48'
p5114
sg26
I01
sg27
g17
sg28
(dp5115
g19
g10
sg30
g5102
sg31
I-81
sg32
(lp5116
g5107
ag5108
asg34
g5112
sg35
I54
ssg36
g5108
sg37
(lp5117
g39
asg40
I54
sg41
I1
sg42
S'nyu'
p5118
sbsS'44:94:FC:40:A9:CC'
p5119
g2
(g3
g4
Ntp5120
Rp5121
(dp5122
g8
(lp5123
g10
ag5119
aS' 2014-02-25 02:08:00'
p5124
aS'2014-02-25 02:29:34'
p5125
ag51
aS'54'
p5126
aS' WPA2'
p5127
aS'-82'
p5128
ag17
aS" Perri'sCrib"
p5129
asg19
g10
sg20
I-82
sg21
g5119
sg22
S'WPA2'
p5130
sg24
S'2014-02-25 02:08:00'
p5131
sg26
I01
sg27
g17
sg28
(dp5132
g19
g10
sg30
g5119
sg31
I-82
sg32
(lp5133
g5124
ag5125
asg34
g5129
sg35
I54
ssg36
g5125
sg37
(lp5134
g39
asg40
I54
sg41
I6
sg42
S"Perri'sCrib"
p5135
sbsS'00:19:CB:40:E2:1E'
p5136
g2
(g3
g4
Ntp5137
Rp5138
(dp5139
g8
(lp5140
g10
ag5136
aS' 2014-03-02 23:19:19'
p5141
aS'2014-03-02 23:19:20'
p5142
aS'11'
p5143
aS'54'
p5144
aS' WPA '
p5145
aS'-90'
p5146
ag17
aS' nyt40e21e'
p5147
asg19
g10
sg20
I-90
sg21
g5136
sg22
S'WPA'
p5148
sg24
S'2014-03-02 23:19:19'
p5149
sg26
I01
sg27
g17
sg28
(dp5150
g19
g10
sg30
g5136
sg31
I-90
sg32
(lp5151
g5141
ag5142
asg34
g5147
sg35
I54
ssg36
g5142
sg37
(lp5152
g39
asg40
I54
sg41
I11
sg42
S'nyt40e21e'
p5153
sbsS'E0:91:F5:0F:3E:28'
p5154
g2
(g3
g4
Ntp5155
Rp5156
(dp5157
g8
(lp5158
g10
ag5154
aS' 2014-02-25 02:23:54'
p5159
aS'2014-02-25 02:25:18'
p5160
aS'11'
p5161
aS'54'
p5162
aS' OPN '
p5163
aS'-87'
p5164
ag17
aS' NETGEAR'
p5165
asg19
g10
sg20
I-87
sg21
g5154
sg22
S'OPN'
p5166
sg24
S'2014-02-25 02:23:54'
p5167
sg26
I01
sg27
g17
sg28
(dp5168
g19
g10
sg30
g5154
sg31
I-87
sg32
(lp5169
g5159
ag5160
asg34
g5165
sg35
I54
ssg36
g5160
sg37
(lp5170
g39
asg40
I54
sg41
I11
sg42
S'NETGEAR'
p5171
sbsS'00:18:3A:D3:DC:48'
p5172
g2
(g3
g4
Ntp5173
Rp5174
(dp5175
g8
(lp5176
g10
ag5172
aS' 2014-03-02 23:42:44'
p5177
aS'2014-03-02 23:43:32'
p5178
ag51
aS'54'
p5179
aS' WEP '
p5180
aS'-90'
p5181
ag17
aS' 08FX09068183'
p5182
asg19
g10
sg20
I-90
sg21
g5172
sg22
g5180
sg24
g5177
sg26
I01
sg27
g17
sg28
(dp5183
g19
g10
sg30
g5172
sg31
I-90
sg32
g5178
sg34
S' 08FX09068183'
p5184
sg35
I54
ssg36
g5178
sg37
g73
sg40
I54
sg41
I6
sg42
g5182
sbsS'10:8C:CF:76:25:B0'
p5185
g2
(g3
g4
Ntp5186
Rp5187
(dp5188
g8
(lp5189
g10
ag5185
aS' 2014-02-25 02:07:43'
p5190
aS'2014-02-25 02:31:14'
p5191
aS'11'
p5192
aS'54'
p5193
aS' WPA2WPA '
p5194
aS'-71'
p5195
ag17
aS' nyu'
p5196
asg19
g10
sg20
I-71
sg21
g5185
sg22
S'WPA2WPA'
p5197
sg24
S'2014-02-25 02:07:43'
p5198
sg26
I01
sg27
g17
sg28
(dp5199
g19
g10
sg30
g5185
sg31
I-71
sg32
(lp5200
g5190
ag5191
asg34
g5196
sg35
I54
ssg36
g5191
sg37
(lp5201
g39
asg40
I54
sg41
I11
sg42
S'nyu'
p5202
sbsS'00:22:3F:A3:6A:1A'
p5203
g2
(g3
g4
Ntp5204
Rp5205
(dp5206
g8
(lp5207
g10
ag5203
aS' 2014-03-02 23:42:15'
p5208
aS'2014-03-02 23:58:21'
p5209
ag728
aS'54'
p5210
aS' OPN '
p5211
aS'-89'
p5212
ag17
aS' NETGEAR'
p5213
asg19
g10
sg20
I-89
sg21
g5203
sg22
g5211
sg24
g5208
sg26
I01
sg27
g17
sg28
(dp5214
g19
g10
sg30
g5203
sg31
I-89
sg32
g5209
sg34
S' NETGEAR'
p5215
sg35
I54
ssg36
g5209
sg37
g73
sg40
I54
sg41
I2
sg42
g5213
sbsS'66:2A:2F:53:7C:99'
p5216
g2
(g3
g4
Ntp5217
Rp5218
(dp5219
g8
(lp5220
g10
ag5216
aS' 2014-02-25 02:10:15'
p5221
aS'2014-02-25 02:29:03'
p5222
aS'11'
p5223
aS'11'
p5224
aS' OPN '
p5225
aS'-128'
p5226
ag17
aS' SETUP'
p5227
asg19
g10
sg20
I-128
sg21
g5216
sg22
S'OPN'
p5228
sg24
S'2014-02-25 02:10:15'
p5229
sg26
I01
sg27
g17
sg28
(dp5230
g19
g10
sg30
g5216
sg31
I-128
sg32
(lp5231
g5221
ag5222
asg34
g5227
sg35
I11
ssg36
g5222
sg37
(lp5232
g39
asg40
I11
sg41
I11
sg42
S'SETUP'
p5233
sbsS'00:24:B2:1E:73:9C'
p5234
g2
(g3
g4
Ntp5235
Rp5236
(dp5237
g8
(lp5238
g10
ag5234
aS' 2014-03-02 23:01:57'
p5239
aS'2014-03-02 23:10:28'
p5240
aS'11'
p5241
aS'54'
p5242
aS' WPA '
p5243
aS'-92'
p5244
ag17
aS' InkStar Desafinao'
p5245
asg19
g10
sg20
I-92
sg21
g5234
sg22
S'WPA'
p5246
sg24
S'2014-03-02 23:01:57'
p5247
sg26
I01
sg27
g17
sg28
(dp5248
g19
g10
sg30
g5234
sg31
I-92
sg32
(lp5249
g5239
ag5240
asg34
g5245
sg35
I54
ssg36
g5240
sg37
(lp5250
g39
asg40
I54
sg41
I11
sg42
S'InkStar Desafinao'
p5251
sbsS'68:7F:74:2A:EC:E8'
p5252
g2
(g3
g4
Ntp5253
Rp5254
(dp5255
g8
(lp5256
g10
ag5252
aS' 2014-03-02 23:07:56'
p5257
aS'2014-03-02 23:07:56'
p5258
aS'108'
p5259
aS'-1'
p5260
aS' OPN '
p5261
aS'-128'
p5262
ag17
ag73
asg19
g10
sg20
I-128
sg21
g5252
sg22
S'OPN'
p5263
sg24
S'2014-03-02 23:07:56'
p5264
sg26
I01
sg27
g17
sg28
(dp5265
g19
g10
sg30
g5252
sg31
I-128
sg32
(lp5266
g5257
ag5258
asg34
g73
sg35
I-1
ssg36
g5258
sg37
(lp5267
g39
asg40
I-1
sg41
I108
sg42
g39
sbsS'02:2C:4C:12:F1:10'
p5268
g2
(g3
g4
Ntp5269
Rp5270
(dp5271
g8
(lp5272
g10
ag5268
aS' 2014-02-25 02:25:47'
p5273
aS'2014-02-25 02:25:56'
p5274
ag51
aS'54'
p5275
aS' OPN '
p5276
aS'-128'
p5277
ag17
aS' HP-nomodel.A88802'
p5278
asg19
g10
sg20
I-128
sg21
g5268
sg22
S'OPN'
p5279
sg24
S'2014-02-25 02:25:47'
p5280
sg26
I01
sg27
g17
sg28
(dp5281
g19
g10
sg30
g5268
sg31
I-128
sg32
(lp5282
g5273
ag5274
asg34
g5278
sg35
I54
ssg36
g5274
sg37
(lp5283
g39
asg40
I54
sg41
I6
sg42
S'HP-nomodel.A88802'
p5284
sbsS'00:0F:66:43:A5:3C'
p5285
g2
(g3
g4
Ntp5286
Rp5287
(dp5288
g8
(lp5289
g10
ag5285
aS' 2014-03-02 23:05:13'
p5290
aS'2014-03-02 23:28:37'
p5291
ag51
aS'54'
p5292
aS' OPN '
p5293
aS'-90'
p5294
ag17
aS' Dragon'
p5295
asg19
g10
sg20
I-90
sg21
g5285
sg22
S'OPN'
p5296
sg24
S'2014-03-02 23:05:13'
p5297
sg26
I01
sg27
g17
sg28
(dp5298
g19
g10
sg30
g5285
sg31
I-90
sg32
(lp5299
g5290
ag5291
asg34
g5295
sg35
I54
ssg36
g5291
sg37
(lp5300
g39
asg40
I54
sg41
I6
sg42
S'Dragon'
p5301
sbsS'00:1D:D3:6F:01:40'
p5302
g2
(g3
g4
Ntp5303
Rp5304
(dp5305
g8
(lp5306
g10
ag5302
aS' 2014-02-25 02:07:52'
p5307
aS'2014-02-25 02:09:28'
p5308
aS'11'
p5309
aS'54'
p5310
aS' WPA2'
p5311
aS'-81'
p5312
ag17
aS' DG860A42'
p5313
asg19
g10
sg20
I-81
sg21
g5302
sg22
S'WPA2'
p5314
sg24
S'2014-02-25 02:07:52'
p5315
sg26
I01
sg27
g17
sg28
(dp5316
g19
g10
sg30
g5302
sg31
I-81
sg32
(lp5317
g5307
ag5308
asg34
g5313
sg35
I54
ssg36
g5308
sg37
(lp5318
g39
asg40
I54
sg41
I11
sg42
S'DG860A42'
p5319
sbsS'0C:F8:93:3E:7F:80'
p5320
g2
(g3
g4
Ntp5321
Rp5322
(dp5323
g8
(lp5324
g10
ag5320
aS' 2014-03-02 23:43:14'
p5325
aS'2014-03-02 23:52:27'
p5326
ag13
aS'54'
p5327
aS' WPA2'
p5328
aS'-90'
p5329
ag17
aS' TG862G82'
p5330
asg19
g10
sg20
I-90
sg21
g5320
sg22
g5328
sg24
g5325
sg26
I01
sg27
g17
sg28
(dp5331
g19
g10
sg30
g5320
sg31
I-90
sg32
g5326
sg34
S' TG862G82'
p5332
sg35
I54
ssg36
g5326
sg37
g73
sg40
I54
sg41
I1
sg42
g5330
sbsS'04:C5:A4:92:59:30'
p5333
g2
(g3
g4
Ntp5334
Rp5335
(dp5336
g8
(lp5337
g10
ag5333
aS' 2014-02-25 02:07:43'
p5338
aS'2014-02-25 02:31:15'
p5339
aS'11'
p5340
aS'54'
p5341
aS' WPA2WPA '
p5342
aS'-61'
p5343
ag17
aS' nyu'
p5344
asg19
g10
sg20
I-61
sg21
g5333
sg22
S'WPA2WPA'
p5345
sg24
S'2014-02-25 02:07:43'
p5346
sg26
I01
sg27
g17
sg28
(dp5347
g19
g10
sg30
g5333
sg31
I-61
sg32
(lp5348
g5338
ag5339
asg34
g5344
sg35
I54
ssg36
g5339
sg37
(lp5349
g39
asg40
I54
sg41
I11
sg42
S'nyu'
p5350
sbsS'A4:17:31:77:9E:CF'
p5351
g2
(g3
g4
Ntp5352
Rp5353
(dp5354
g8
(lp5355
g10
ag5351
aS' 2014-02-25 02:15:35'
p5356
aS'2014-02-25 02:15:47'
p5357
aS'-1'
p5358
aS'-1'
p5359
aS'     '
p5360
aS'-102'
p5361
ag17
ag73
asg19
g10
sg20
I-102
sg21
g5351
sg22
g39
sg24
S'2014-02-25 02:15:35'
p5362
sg26
I01
sg27
g17
sg28
(dp5363
g19
g10
sg30
g5351
sg31
I-102
sg32
(lp5364
g5356
ag5357
asg34
g73
sg35
I-1
ssg36
g5357
sg37
(lp5365
g39
asg40
I-1
sg41
I-1
sg42
g39
sbsS'04:C5:A4:92:59:32'
p5366
g2
(g3
g4
Ntp5367
Rp5368
(dp5369
g8
(lp5370
g10
ag5366
aS' 2014-02-25 02:07:52'
p5371
aS'2014-02-25 02:31:04'
p5372
aS'11'
p5373
aS'54'
p5374
aS' OPN '
p5375
aS'-63'
p5376
ag17
aS' NYU-ROAM3'
p5377
asg19
g10
sg20
I-63
sg21
g5366
sg22
S'OPN'
p5378
sg24
S'2014-02-25 02:07:52'
p5379
sg26
I01
sg27
g17
sg28
(dp5380
g19
g10
sg30
g5366
sg31
I-63
sg32
(lp5381
g5371
ag5372
asg34
g5377
sg35
I54
ssg36
g5372
sg37
(lp5382
g39
asg40
I54
sg41
I11
sg42
S'NYU-ROAM3'
p5383
sbsS'04:C5:A4:92:59:33'
p5384
g2
(g3
g4
Ntp5385
Rp5386
(dp5387
g8
(lp5388
g10
ag5384
aS' 2014-02-25 02:07:43'
p5389
aS'2014-02-25 02:31:15'
p5390
aS'11'
p5391
aS'54'
p5392
aS' OPN '
p5393
aS'-64'
p5394
ag17
aS' nyupda'
p5395
asg19
g10
sg20
I-64
sg21
g5384
sg22
S'OPN'
p5396
sg24
S'2014-02-25 02:07:43'
p5397
sg26
I01
sg27
g17
sg28
(dp5398
g19
g10
sg30
g5384
sg31
I-64
sg32
(lp5399
g5389
ag5390
asg34
g5395
sg35
I54
ssg36
g5390
sg37
(lp5400
g39
asg40
I54
sg41
I11
sg42
S'nyupda'
p5401
sbsS'E0:3F:49:05:D0:18'
p5402
g2
(g3
g4
Ntp5403
Rp5404
(dp5405
g8
(lp5406
g10
ag5402
aS' 2014-02-25 02:08:01'
p5407
aS'2014-02-25 02:26:25'
p5408
ag51
aS'54'
p5409
aS' WPA2'
p5410
aS'-84'
p5411
ag17
aS' 56kDialUp'
p5412
asg19
g10
sg20
I-84
sg21
g5402
sg22
S'WPA2'
p5413
sg24
S'2014-02-25 02:08:01'
p5414
sg26
I01
sg27
g17
sg28
(dp5415
g19
g10
sg30
g5402
sg31
I-84
sg32
(lp5416
g5407
ag5408
asg34
g5412
sg35
I54
ssg36
g5408
sg37
(lp5417
g39
asg40
I54
sg41
I6
sg42
S'56kDialUp'
p5418
sbsS'02:2C:DC:03:82:02'
p5419
g2
(g3
g4
Ntp5420
Rp5421
(dp5422
g8
(lp5423
g10
ag5419
aS' 2014-02-25 02:08:02'
p5424
aS'2014-02-25 02:30:55'
p5425
ag51
aS'54'
p5426
aS' OPN '
p5427
aS'-128'
p5428
ag17
aS' HP-nomodel.2B564A'
p5429
asg19
g10
sg20
I-128
sg21
g5419
sg22
S'OPN'
p5430
sg24
S'2014-02-25 02:08:02'
p5431
sg26
I01
sg27
g17
sg28
(dp5432
g19
g10
sg30
g5419
sg31
I-128
sg32
(lp5433
g5424
ag5425
asg34
g5429
sg35
I54
ssg36
g5425
sg37
(lp5434
g39
asg40
I54
sg41
I6
sg42
S'HP-nomodel.2B564A'
p5435
sbsS'90:A2:DA:F1:01:59'
p5436
g2
(g3
g4
Ntp5437
Rp5438
(dp5439
g8
(lp5440
g10
ag5436
aS' 2014-02-25 02:07:41'
p5441
aS'2014-02-25 02:31:04'
p5442
aS'11'
p5443
aS'54'
p5444
aS' OPN '
p5445
aS'-77'
p5446
ag17
aS' Arduino Yun-90A2DAF10159'
p5447
asg19
g10
sg20
I-77
sg21
g5436
sg22
S'OPN'
p5448
sg24
S'2014-02-25 02:07:41'
p5449
sg26
I01
sg27
g17
sg28
(dp5450
g19
g10
sg30
g5436
sg31
I-77
sg32
(lp5451
g5441
ag5442
asg34
g5447
sg35
I54
ssg36
g5442
sg37
(lp5452
g39
asg40
I54
sg41
I11
sg42
S'Arduino Yun-90A2DAF10159'
p5453
sbsS'20:4E:7F:03:E5:52'
p5454
g2
(g3
g4
Ntp5455
Rp5456
(dp5457
g8
(lp5458
g10
ag5454
aS' 2014-03-02 23:01:00'
p5459
aS'2014-03-02 23:18:06'
p5460
ag51
aS'54'
p5461
aS' WPA2WPA '
p5462
aS'-88'
p5463
ag17
aS' 03E553'
p5464
asg19
g10
sg20
I-88
sg21
g5454
sg22
S'WPA2WPA'
p5465
sg24
S'2014-03-02 23:01:00'
p5466
sg26
I01
sg27
g17
sg28
(dp5467
g19
g10
sg30
g5454
sg31
I-88
sg32
(lp5468
g5459
ag5460
asg34
g5464
sg35
I54
ssg36
g5460
sg37
(lp5469
g39
asg40
I54
sg41
I6
sg42
S'03E553'
p5470
sbsS'02:27:17:FB:55:F6'
p5471
g2
(g3
g4
Ntp5472
Rp5473
(dp5474
g8
(lp5475
g10
ag5471
aS' 2014-02-25 02:25:54'
p5476
aS'2014-02-25 02:25:55'
p5477
aS'10'
p5478
aS'11'
p5479
aS' OPN '
p5480
aS'-128'
p5481
ag17
aS' HP8D65FF'
p5482
asg19
g10
sg20
I-128
sg21
g5471
sg22
S'OPN'
p5483
sg24
S'2014-02-25 02:25:54'
p5484
sg26
I01
sg27
g17
sg28
(dp5485
g19
g10
sg30
g5471
sg31
I-128
sg32
(lp5486
g5476
ag5477
asg34
g5482
sg35
I11
ssg36
g5477
sg37
(lp5487
g39
asg40
I11
sg41
I10
sg42
S'HP8D65FF'
p5488
sbsS'60:33:4B:E8:9D:BF'
p5489
g2
(g3
g4
Ntp5490
Rp5491
(dp5492
g8
(lp5493
g10
ag5489
aS' 2014-02-25 02:10:13'
p5494
aS'2014-02-25 02:30:32'
p5495
ag239
aS'54'
p5496
aS' WPA2WPA '
p5497
aS'-88'
p5498
ag17
aS' Kim & Shi'
p5499
asg19
g10
sg20
I-88
sg21
g5489
sg22
S'WPA2WPA'
p5500
sg24
S'2014-02-25 02:10:13'
p5501
sg26
I01
sg27
g17
sg28
(dp5502
g19
g10
sg30
g5489
sg31
I-88
sg32
(lp5503
g5494
ag5495
asg34
g5499
sg35
I54
ssg36
g5495
sg37
(lp5504
g39
asg40
I54
sg41
I9
sg42
S'Kim & Shi'
p5505
sbsS'F8:E4:FB:D1:C8:07'
p5506
g2
(g3
g4
Ntp5507
Rp5508
(dp5509
g8
(lp5510
g10
ag5506
aS' 2014-03-02 23:00:25'
p5511
aS'2014-03-02 23:26:25'
p5512
aS'11'
p5513
aS'54'
p5514
aS' WPA2'
p5515
aS'-88'
p5516
ag17
aS' XHQGP'
p5517
asg19
g10
sg20
I-88
sg21
g5506
sg22
S'WPA2'
p5518
sg24
S'2014-03-02 23:00:25'
p5519
sg26
I01
sg27
g17
sg28
(dp5520
g19
g10
sg30
g5506
sg31
I-88
sg32
(lp5521
g5511
ag5512
asg34
g5517
sg35
I54
ssg36
g5512
sg37
(lp5522
g39
asg40
I54
sg41
I11
sg42
S'XHQGP'
p5523
sbsS'00:1F:33:2A:B3:18'
p5524
g2
(g3
g4
Ntp5525
Rp5526
(dp5527
g8
(lp5528
g10
ag5524
aS' 2014-03-02 23:42:43'
p5529
aS'2014-03-02 23:56:58'
p5530
aS'11'
p5531
aS'54'
p5532
aS' WPA2WPA '
p5533
aS'-91'
p5534
ag17
aS' Vancillia'
p5535
asg19
g10
sg20
I-91
sg21
g5524
sg22
g5533
sg24
g5529
sg26
I01
sg27
g17
sg28
(dp5536
g19
g10
sg30
g5524
sg31
I-91
sg32
g5530
sg34
S' Vancillia'
p5537
sg35
I54
ssg36
g5530
sg37
g73
sg40
I54
sg41
I11
sg42
g5535
sbsS'C4:3D:C7:54:8F:8F'
p5538
g2
(g3
g4
Ntp5539
Rp5540
(dp5541
g8
(lp5542
g10
ag5538
aS' 2014-02-25 02:07:37'
p5543
aS'2014-02-25 02:30:36'
p5544
ag13
aS'54'
p5545
aS' WPA2'
p5546
aS'-82'
p5547
ag17
aS' DCROSS9'
p5548
asg19
g10
sg20
I-82
sg21
g5538
sg22
S'WPA2'
p5549
sg24
S'2014-02-25 02:07:37'
p5550
sg26
I01
sg27
g17
sg28
(dp5551
g19
g10
sg30
g5538
sg31
I-82
sg32
(lp5552
g5543
ag5544
asg34
g5548
sg35
I54
ssg36
g5544
sg37
(lp5553
g39
asg40
I54
sg41
I1
sg42
S'DCROSS9'
p5554
sbsS'10:8C:CF:76:25:B1'
p5555
g2
(g3
g4
Ntp5556
Rp5557
(dp5558
g8
(lp5559
g10
ag5555
aS' 2014-02-25 02:07:43'
p5560
aS'2014-02-25 02:31:15'
p5561
aS'11'
p5562
aS'54'
p5563
aS' OPN '
p5564
aS'-68'
p5565
ag17
aS' nyuguest'
p5566
asg19
g10
sg20
I-68
sg21
g5555
sg22
S'OPN'
p5567
sg24
S'2014-02-25 02:07:43'
p5568
sg26
I01
sg27
g17
sg28
(dp5569
g19
g10
sg30
g5555
sg31
I-68
sg32
(lp5570
g5560
ag5561
asg34
g5566
sg35
I54
ssg36
g5561
sg37
(lp5571
g39
asg40
I54
sg41
I11
sg42
S'nyuguest'
p5572
sbsS'10:8C:CF:76:25:B2'
p5573
g2
(g3
g4
Ntp5574
Rp5575
(dp5576
g8
(lp5577
g10
ag5573
aS' 2014-02-25 02:07:43'
p5578
aS'2014-02-25 02:31:14'
p5579
aS'11'
p5580
aS'54'
p5581
aS' OPN '
p5582
aS'-69'
p5583
ag17
aS' NYU-ROAM3'
p5584
asg19
g10
sg20
I-69
sg21
g5573
sg22
S'OPN'
p5585
sg24
S'2014-02-25 02:07:43'
p5586
sg26
I01
sg27
g17
sg28
(dp5587
g19
g10
sg30
g5573
sg31
I-69
sg32
(lp5588
g5578
ag5579
asg34
g5584
sg35
I54
ssg36
g5579
sg37
(lp5589
g39
asg40
I54
sg41
I11
sg42
S'NYU-ROAM3'
p5590
sbsS'10:8C:CF:76:25:B3'
p5591
g2
(g3
g4
Ntp5592
Rp5593
(dp5594
g8
(lp5595
g10
ag5591
aS' 2014-02-25 02:07:43'
p5596
aS'2014-02-25 02:31:15'
p5597
aS'11'
p5598
aS'54'
p5599
aS' OPN '
p5600
aS'-71'
p5601
ag17
aS' nyupda'
p5602
asg19
g10
sg20
I-71
sg21
g5591
sg22
S'OPN'
p5603
sg24
S'2014-02-25 02:07:43'
p5604
sg26
I01
sg27
g17
sg28
(dp5605
g19
g10
sg30
g5591
sg31
I-71
sg32
(lp5606
g5596
ag5597
asg34
g5602
sg35
I54
ssg36
g5597
sg37
(lp5607
g39
asg40
I54
sg41
I11
sg42
S'nyupda'
p5608
sbsS'04:C5:A4:81:E8:C3'
p5609
g2
(g3
g4
Ntp5610
Rp5611
(dp5612
g8
(lp5613
g10
ag5609
aS' 2014-02-25 02:14:37'
p5614
aS'2014-02-25 02:26:05'
p5615
ag51
aS'54'
p5616
aS' OPN '
p5617
aS'-72'
p5618
ag17
aS' nyupda'
p5619
asg19
g10
sg20
I-72
sg21
g5609
sg22
S'OPN'
p5620
sg24
S'2014-02-25 02:14:37'
p5621
sg26
I01
sg27
g17
sg28
(dp5622
g19
g10
sg30
g5609
sg31
I-72
sg32
(lp5623
g5614
ag5615
asg34
g5619
sg35
I54
ssg36
g5615
sg37
(lp5624
g39
asg40
I54
sg41
I6
sg42
S'nyupda'
p5625
sbsS'04:C5:A4:81:E8:C2'
p5626
g2
(g3
g4
Ntp5627
Rp5628
(dp5629
g8
(lp5630
g10
ag5626
aS' 2014-02-25 02:07:43'
p5631
aS'2014-02-25 02:29:34'
p5632
ag51
aS'54'
p5633
aS' OPN '
p5634
aS'-73'
p5635
ag17
aS' NYU-ROAM3'
p5636
asg19
g10
sg20
I-73
sg21
g5626
sg22
S'OPN'
p5637
sg24
S'2014-02-25 02:07:43'
p5638
sg26
I01
sg27
g17
sg28
(dp5639
g19
g10
sg30
g5626
sg31
I-73
sg32
(lp5640
g5631
ag5632
asg34
g5636
sg35
I54
ssg36
g5632
sg37
(lp5641
g39
asg40
I54
sg41
I6
sg42
S'NYU-ROAM3'
p5642
sbsS'04:C5:A4:81:E8:C1'
p5643
g2
(g3
g4
Ntp5644
Rp5645
(dp5646
g8
(lp5647
g10
ag5643
aS' 2014-02-25 02:11:14'
p5648
aS'2014-02-25 02:26:05'
p5649
ag51
aS'54'
p5650
aS' OPN '
p5651
aS'-69'
p5652
ag17
aS' nyuguest'
p5653
asg19
g10
sg20
I-69
sg21
g5643
sg22
S'OPN'
p5654
sg24
S'2014-02-25 02:11:14'
p5655
sg26
I01
sg27
g17
sg28
(dp5656
g19
g10
sg30
g5643
sg31
I-69
sg32
(lp5657
g5648
ag5649
asg34
g5653
sg35
I54
ssg36
g5649
sg37
(lp5658
g39
asg40
I54
sg41
I6
sg42
S'nyuguest'
p5659
sbsS'04:C5:A4:81:E8:C0'
p5660
g2
(g3
g4
Ntp5661
Rp5662
(dp5663
g8
(lp5664
g10
ag5660
aS' 2014-02-25 02:10:43'
p5665
aS'2014-02-25 02:30:35'
p5666
ag51
aS'54'
p5667
aS' WPA2WPA OPN '
p5668
aS'-74'
p5669
ag17
aS' nyu'
p5670
asg19
g10
sg20
I-74
sg21
g5660
sg22
S'WPA2WPA OPN'
p5671
sg24
S'2014-02-25 02:10:43'
p5672
sg26
I01
sg27
g17
sg28
(dp5673
g19
g10
sg30
g5660
sg31
I-74
sg32
(lp5674
g5665
ag5666
asg34
g5670
sg35
I54
ssg36
g5666
sg37
(lp5675
g39
asg40
I54
sg41
I6
sg42
S'nyu'
p5676
sbsS'90:72:40:10:AD:90'
p5677
g2
(g3
g4
Ntp5678
Rp5679
(dp5680
g8
(lp5681
g10
ag5677
aS' 2014-02-25 02:25:47'
p5682
aS'2014-02-25 02:25:58'
p5683
ag51
aS'54'
p5684
aS' WPA2'
p5685
aS'-80'
p5686
ag17
aS' ARWIFI'
p5687
asg19
g10
sg20
I-80
sg21
g5677
sg22
S'WPA2'
p5688
sg24
S'2014-02-25 02:25:47'
p5689
sg26
I01
sg27
g17
sg28
(dp5690
g19
g10
sg30
g5677
sg31
I-80
sg32
(lp5691
g5682
ag5683
asg34
g5687
sg35
I54
ssg36
g5683
sg37
(lp5692
g39
asg40
I54
sg41
I6
sg42
S'ARWIFI'
p5693
sbsS'02:2A:2A:2F:71:2A'
p5694
g2
(g3
g4
Ntp5695
Rp5696
(dp5697
g8
(lp5698
g10
ag5694
aS' 2014-02-25 02:25:45'
p5699
aS'2014-02-25 02:25:55'
p5700
aS'10'
p5701
aS'11'
p5702
aS' OPN '
p5703
aS'-128'
p5704
ag17
aS' HP78648F'
p5705
asg19
g10
sg20
I-128
sg21
g5694
sg22
S'OPN'
p5706
sg24
S'2014-02-25 02:25:45'
p5707
sg26
I01
sg27
g17
sg28
(dp5708
g19
g10
sg30
g5694
sg31
I-128
sg32
(lp5709
g5699
ag5700
asg34
g5705
sg35
I11
ssg36
g5700
sg37
(lp5710
g39
asg40
I11
sg41
I10
sg42
S'HP78648F'
p5711
sbsS'92:90:AD:10:40:71'
p5712
g2
(g3
g4
Ntp5713
Rp5714
(dp5715
g8
(lp5716
g10
ag5712
aS' 2014-02-25 02:25:47'
p5717
aS'2014-02-25 02:25:58'
p5718
ag51
aS'54'
p5719
aS' WPA2WPA '
p5720
aS'-79'
p5721
ag17
aS' ARWIFIGUEST'
p5722
asg19
g10
sg20
I-79
sg21
g5712
sg22
S'WPA2WPA'
p5723
sg24
S'2014-02-25 02:25:47'
p5724
sg26
I01
sg27
g17
sg28
(dp5725
g19
g10
sg30
g5712
sg31
I-79
sg32
(lp5726
g5717
ag5718
asg34
g5722
sg35
I54
ssg36
g5718
sg37
(lp5727
g39
asg40
I54
sg41
I6
sg42
S'ARWIFIGUEST'
p5728
sbsS'00:15:6D:64:21:38'
p5729
g2
(g3
g4
Ntp5730
Rp5731
(dp5732
g8
(lp5733
g10
ag5729
aS' 2014-03-02 23:42:17'
p5734
aS'2014-03-02 23:58:17'
p5735
ag51
aS'54'
p5736
aS' OPN '
p5737
aS'-80'
p5738
ag17
aS' www.nycwireless.net'
p5739
asg19
g10
sg20
I-80
sg21
g5729
sg22
g5737
sg24
g5734
sg26
I01
sg27
g17
sg28
(dp5740
g19
g10
sg30
g5729
sg31
I-80
sg32
g5735
sg34
S' www.nycwireless.net'
p5741
sg35
I54
ssg36
g5735
sg37
g73
sg40
I54
sg41
I6
sg42
g5739
sbsS'68:BC:0C:F8:D0:54'
p5742
g2
(g3
g4
Ntp5743
Rp5744
(dp5745
g8
(lp5746
g10
ag5742
aS' 2014-02-25 02:25:55'
p5747
aS'2014-02-25 02:25:55'
p5748
aS'11'
p5749
aS'54'
p5750
aS' WPA2'
p5751
aS'-78'
p5752
ag17
aS' eduroam'
p5753
asg19
g10
sg20
I-78
sg21
g5742
sg22
S'WPA2'
p5754
sg24
S'2014-02-25 02:25:55'
p5755
sg26
I01
sg27
g17
sg28
(dp5756
g19
g10
sg30
g5742
sg31
I-78
sg32
(lp5757
g5747
ag5748
asg34
g5753
sg35
I54
ssg36
g5748
sg37
(lp5758
g39
asg40
I54
sg41
I11
sg42
S'eduroam'
p5759
sbsS'04:A1:51:B3:1A:F3'
p5760
g2
(g3
g4
Ntp5761
Rp5762
(dp5763
g8
(lp5764
g10
ag5760
aS' 2014-02-25 02:27:04'
p5765
aS'2014-02-25 02:30:36'
p5766
ag13
aS'54'
p5767
aS' OPN '
p5768
aS'-88'
p5769
ag17
aS' Netgear_EXT'
p5770
asg19
g10
sg20
I-88
sg21
g5760
sg22
S'OPN'
p5771
sg24
S'2014-02-25 02:27:04'
p5772
sg26
I01
sg27
g17
sg28
(dp5773
g19
g10
sg30
g5760
sg31
I-88
sg32
(lp5774
g5765
ag5766
asg34
g5770
sg35
I54
ssg36
g5766
sg37
(lp5775
g39
asg40
I54
sg41
I1
sg42
S'Netgear_EXT'
p5776
sbsS'EC:1A:59:5B:16:86'
p5777
g2
(g3
g4
Ntp5778
Rp5779
(dp5780
g8
(lp5781
g10
ag5777
aS' 2014-03-02 23:03:22'
p5782
aS'2014-03-02 23:28:06'
p5783
aS'10'
p5784
aS'54'
p5785
aS' WPA2'
p5786
aS'-91'
p5787
ag17
aS' house LANnister.'
p5788
asg19
g10
sg20
I-91
sg21
g5777
sg22
S'WPA2'
p5789
sg24
S'2014-03-02 23:03:22'
p5790
sg26
I01
sg27
g17
sg28
(dp5791
g19
g10
sg30
g5777
sg31
I-91
sg32
(lp5792
g5782
ag5783
asg34
g5788
sg35
I54
ssg36
g5783
sg37
(lp5793
g39
asg40
I54
sg41
I10
sg42
S'house LANnister.'
p5794
sbsS'68:7F:74:AD:12:81'
p5795
g2
(g3
g4
Ntp5796
Rp5797
(dp5798
g8
(lp5799
g10
ag5795
aS' 2014-02-25 02:08:31'
p5800
aS'2014-02-25 02:31:15'
p5801
ag51
aS'54'
p5802
aS' OPN '
p5803
aS'-78'
p5804
ag17
aS' homepaskhaver-guest'
p5805
asg19
g10
sg20
I-78
sg21
g5795
sg22
S'OPN'
p5806
sg24
S'2014-02-25 02:08:31'
p5807
sg26
I01
sg27
g17
sg28
(dp5808
g19
g10
sg30
g5795
sg31
I-78
sg32
(lp5809
g5800
ag5801
asg34
g5805
sg35
I54
ssg36
g5801
sg37
(lp5810
g39
asg40
I54
sg41
I6
sg42
S'homepaskhaver-guest'
p5811
sbsS'20:4E:7F:2F:E3:E2'
p5812
g2
(g3
g4
Ntp5813
Rp5814
(dp5815
g8
(lp5816
g10
ag5812
aS' 2014-02-25 02:08:18'
p5817
aS'2014-02-25 02:30:52'
p5818
ag1861
aS'54'
p5819
aS' WPA2'
p5820
aS'-88'
p5821
ag17
aS' avanti'
p5822
asg19
g10
sg20
I-88
sg21
g5812
sg22
S'WPA2'
p5823
sg24
S'2014-02-25 02:08:18'
p5824
sg26
I01
sg27
g17
sg28
(dp5825
g19
g10
sg30
g5812
sg31
I-88
sg32
(lp5826
g5817
ag5818
asg34
g5822
sg35
I54
ssg36
g5818
sg37
(lp5827
g39
asg40
I54
sg41
I4
sg42
S'avanti'
p5828
sbsS'08:3E:8E:34:DF:DF'
p5829
g2
(g3
g4
Ntp5830
Rp5831
(dp5832
g8
(lp5833
g10
ag5829
aS' 2014-02-25 02:13:39'
p5834
aS'2014-02-25 02:26:15'
p5835
ag51
aS'54'
p5836
aS' WPA2'
p5837
aS'-88'
p5838
ag17
aS' DVW3201B8C'
p5839
asg19
g10
sg20
I-88
sg21
g5829
sg22
S'WPA2'
p5840
sg24
S'2014-02-25 02:13:39'
p5841
sg26
I01
sg27
g17
sg28
(dp5842
g19
g10
sg30
g5829
sg31
I-88
sg32
(lp5843
g5834
ag5835
asg34
g5839
sg35
I54
ssg36
g5835
sg37
(lp5844
g39
asg40
I54
sg41
I6
sg42
S'DVW3201B8C'
p5845
sbsS'00:21:29:87:1D:FB'
p5846
g2
(g3
g4
Ntp5847
Rp5848
(dp5849
g8
(lp5850
g10
ag5846
aS' 2014-02-25 02:09:08'
p5851
aS'2014-02-25 02:28:43'
p5852
aS'11'
p5853
aS'54'
p5854
aS' WPA2'
p5855
aS'-88'
p5856
ag17
aS' bluebusi'
p5857
asg19
g10
sg20
I-88
sg21
g5846
sg22
S'WPA2'
p5858
sg24
S'2014-02-25 02:09:08'
p5859
sg26
I01
sg27
g17
sg28
(dp5860
g19
g10
sg30
g5846
sg31
I-88
sg32
(lp5861
g5851
ag5852
asg34
g5857
sg35
I54
ssg36
g5852
sg37
(lp5862
g39
asg40
I54
sg41
I11
sg42
S'bluebusi'
p5863
sbsS'00:0E:58:49:BD:85'
p5864
g2
(g3
g4
Ntp5865
Rp5866
(dp5867
g8
(lp5868
g10
ag5864
aS' 2014-02-25 02:26:34'
p5869
aS'2014-02-25 02:31:05'
p5870
aS'133'
p5871
aS'-1'
p5872
aS' WPA '
p5873
aS'-128'
p5874
ag17
ag73
asg19
g10
sg20
I-128
sg21
g5864
sg22
S'WPA'
p5875
sg24
S'2014-02-25 02:26:34'
p5876
sg26
I01
sg27
g17
sg28
(dp5877
g19
g10
sg30
g5864
sg31
I-128
sg32
(lp5878
g5869
ag5870
asg34
g73
sg35
I-1
ssg36
g5870
sg37
(lp5879
g39
asg40
I-1
sg41
I133
sg42
g39
sbsS'1C:17:D3:17:9C:42'
p5880
g2
(g3
g4
Ntp5881
Rp5882
(dp5883
g8
(lp5884
g10
ag5880
aS' 2014-02-25 02:25:29'
p5885
aS'2014-02-25 02:25:48'
p5886
ag13
aS'54'
p5887
aS' OPN '
p5888
aS'-77'
p5889
ag17
aS' NYU-ROAM3'
p5890
asg19
g10
sg20
I-77
sg21
g5880
sg22
S'OPN'
p5891
sg24
S'2014-02-25 02:25:29'
p5892
sg26
I01
sg27
g17
sg28
(dp5893
g19
g10
sg30
g5880
sg31
I-77
sg32
(lp5894
g5885
ag5886
asg34
g5890
sg35
I54
ssg36
g5886
sg37
(lp5895
g39
asg40
I54
sg41
I1
sg42
S'NYU-ROAM3'
p5896
sbsS'1C:17:D3:17:9C:43'
p5897
g2
(g3
g4
Ntp5898
Rp5899
(dp5900
g8
(lp5901
g10
ag5897
aS' 2014-02-25 02:25:29'
p5902
aS'2014-02-25 02:25:57'
p5903
ag13
aS'54'
p5904
aS' OPN '
p5905
aS'-76'
p5906
ag17
aS' nyupda'
p5907
asg19
g10
sg20
I-76
sg21
g5897
sg22
S'OPN'
p5908
sg24
S'2014-02-25 02:25:29'
p5909
sg26
I01
sg27
g17
sg28
(dp5910
g19
g10
sg30
g5897
sg31
I-76
sg32
(lp5911
g5902
ag5903
asg34
g5907
sg35
I54
ssg36
g5903
sg37
(lp5912
g39
asg40
I54
sg41
I1
sg42
S'nyupda'
p5913
sbsS'1C:17:D3:17:9C:40'
p5914
g2
(g3
g4
Ntp5915
Rp5916
(dp5917
g8
(lp5918
g10
ag5914
aS' 2014-02-25 02:25:48'
p5919
aS'2014-02-25 02:30:25'
p5920
ag13
aS'54'
p5921
aS' WPA2WPA '
p5922
aS'-73'
p5923
ag17
aS' nyu'
p5924
asg19
g10
sg20
I-73
sg21
g5914
sg22
S'WPA2WPA'
p5925
sg24
S'2014-02-25 02:25:48'
p5926
sg26
I01
sg27
g17
sg28
(dp5927
g19
g10
sg30
g5914
sg31
I-73
sg32
(lp5928
g5919
ag5920
asg34
g5924
sg35
I54
ssg36
g5920
sg37
(lp5929
g39
asg40
I54
sg41
I1
sg42
S'nyu'
p5930
sbsS'1C:17:D3:17:9C:41'
p5931
g2
(g3
g4
Ntp5932
Rp5933
(dp5934
g8
(lp5935
g10
ag5931
aS' 2014-02-25 02:25:29'
p5936
aS'2014-02-25 02:25:48'
p5937
ag13
aS'54'
p5938
aS' OPN '
p5939
aS'-75'
p5940
ag17
aS' nyuguest'
p5941
asg19
g10
sg20
I-75
sg21
g5931
sg22
S'OPN'
p5942
sg24
S'2014-02-25 02:25:29'
p5943
sg26
I01
sg27
g17
sg28
(dp5944
g19
g10
sg30
g5931
sg31
I-75
sg32
(lp5945
g5936
ag5937
asg34
g5941
sg35
I54
ssg36
g5937
sg37
(lp5946
g39
asg40
I54
sg41
I1
sg42
S'nyuguest'
p5947
sbsS'1C:17:D3:17:9C:44'
p5948
g2
(g3
g4
Ntp5949
Rp5950
(dp5951
g8
(lp5952
g10
ag5948
aS' 2014-02-25 02:25:29'
p5953
aS'2014-02-25 02:25:57'
p5954
ag13
aS'54'
p5955
aS' WPA2'
p5956
aS'-76'
p5957
ag17
aS' eduroam'
p5958
asg19
g10
sg20
I-76
sg21
g5948
sg22
S'WPA2'
p5959
sg24
S'2014-02-25 02:25:29'
p5960
sg26
I01
sg27
g17
sg28
(dp5961
g19
g10
sg30
g5948
sg31
I-76
sg32
(lp5962
g5953
ag5954
asg34
g5958
sg35
I54
ssg36
g5954
sg37
(lp5963
g39
asg40
I54
sg41
I1
sg42
S'eduroam'
p5964
sbsS'CC:A4:62:3F:4E:B0'
p5965
g2
(g3
g4
Ntp5966
Rp5967
(dp5968
g8
(lp5969
g10
ag5965
aS' 2014-02-25 02:08:17'
p5970
aS'2014-02-25 02:29:00'
p5971
ag239
aS'54'
p5972
aS' WPA2'
p5973
aS'-89'
p5974
ag17
aS' WiFi777'
p5975
asg19
g10
sg20
I-89
sg21
g5965
sg22
S'WPA2'
p5976
sg24
S'2014-02-25 02:08:17'
p5977
sg26
I01
sg27
g17
sg28
(dp5978
g19
g10
sg30
g5965
sg31
I-89
sg32
(lp5979
g5970
ag5971
asg34
g5975
sg35
I54
ssg36
g5971
sg37
(lp5980
g39
asg40
I54
sg41
I9
sg42
S'WiFi777'
p5981
sbsS'68:7F:74:AD:12:7F'
p5982
g2
(g3
g4
Ntp5983
Rp5984
(dp5985
g8
(lp5986
g10
ag5982
aS' 2014-02-25 02:09:09'
p5987
aS'2014-02-25 02:31:15'
p5988
ag51
aS'54'
p5989
aS' WPA2WPA '
p5990
aS'-79'
p5991
ag17
aS' homepaskhaver'
p5992
asg19
g10
sg20
I-79
sg21
g5982
sg22
S'WPA2WPA'
p5993
sg24
S'2014-02-25 02:09:09'
p5994
sg26
I01
sg27
g17
sg28
(dp5995
g19
g10
sg30
g5982
sg31
I-79
sg32
(lp5996
g5987
ag5988
asg34
g5992
sg35
I54
ssg36
g5988
sg37
(lp5997
g39
asg40
I54
sg41
I6
sg42
S'homepaskhaver'
p5998
sbsS'28:C6:8E:13:DE:34'
p5999
g2
(g3
g4
Ntp6000
Rp6001
(dp6002
g8
(lp6003
g10
ag5999
aS' 2014-03-02 23:43:31'
p6004
aS'2014-03-02 23:50:30'
p6005
aS'11'
p6006
aS'54'
p6007
aS' WPA2'
p6008
aS'-90'
p6009
ag17
aS' NETGEAR51'
p6010
asg19
g10
sg20
I-90
sg21
g5999
sg22
g6008
sg24
g6004
sg26
I01
sg27
g17
sg28
(dp6011
g19
g10
sg30
g5999
sg31
I-90
sg32
g6005
sg34
S' NETGEAR51'
p6012
sg35
I54
ssg36
g6005
sg37
g73
sg40
I54
sg41
I11
sg42
g6010
sbsS'00:1D:D6:DB:EA:60'
p6013
g2
(g3
g4
Ntp6014
Rp6015
(dp6016
g8
(lp6017
g10
ag6013
aS' 2014-02-25 02:07:43'
p6018
aS'2014-02-25 02:26:25'
p6019
ag51
aS'54'
p6020
aS' WPA2'
p6021
aS'-86'
p6022
ag17
aS' DG860A62'
p6023
asg19
g10
sg20
I-86
sg21
g6013
sg22
S'WPA2'
p6024
sg24
S'2014-02-25 02:07:43'
p6025
sg26
I01
sg27
g17
sg28
(dp6026
g19
g10
sg30
g6013
sg31
I-86
sg32
(lp6027
g6018
ag6019
asg34
g6023
sg35
I54
ssg36
g6019
sg37
(lp6028
g39
asg40
I54
sg41
I6
sg42
S'DG860A62'
p6029
sbsS'04:C5:A4:92:7F:90'
p6030
g2
(g3
g4
Ntp6031
Rp6032
(dp6033
g8
(lp6034
g10
ag6030
aS' 2014-02-25 02:23:42'
p6035
aS'2014-02-25 02:26:07'
p6036
ag13
aS'54'
p6037
aS' WPA2WPA OPN '
p6038
aS'-76'
p6039
ag17
aS' nyu'
p6040
asg19
g10
sg20
I-76
sg21
g6030
sg22
S'WPA2WPA OPN'
p6041
sg24
S'2014-02-25 02:23:42'
p6042
sg26
I01
sg27
g17
sg28
(dp6043
g19
g10
sg30
g6030
sg31
I-76
sg32
(lp6044
g6035
ag6036
asg34
g6040
sg35
I54
ssg36
g6036
sg37
(lp6045
g39
asg40
I54
sg41
I1
sg42
S'nyu'
p6046
sbsS'04:C5:A4:92:7F:93'
p6047
g2
(g3
g4
Ntp6048
Rp6049
(dp6050
g8
(lp6051
g10
ag6047
aS' 2014-02-25 02:25:01'
p6052
aS'2014-02-25 02:26:07'
p6053
ag13
aS'54'
p6054
aS' OPN '
p6055
aS'-73'
p6056
ag17
aS' nyupda'
p6057
asg19
g10
sg20
I-73
sg21
g6047
sg22
S'OPN'
p6058
sg24
S'2014-02-25 02:25:01'
p6059
sg26
I01
sg27
g17
sg28
(dp6060
g19
g10
sg30
g6047
sg31
I-73
sg32
(lp6061
g6052
ag6053
asg34
g6057
sg35
I54
ssg36
g6053
sg37
(lp6062
g39
asg40
I54
sg41
I1
sg42
S'nyupda'
p6063
sbsS'04:C5:A4:92:7F:92'
p6064
g2
(g3
g4
Ntp6065
Rp6066
(dp6067
g8
(lp6068
g10
ag6064
aS' 2014-02-25 02:25:10'
p6069
aS'2014-02-25 02:26:07'
p6070
ag13
aS'54'
p6071
aS' OPN '
p6072
aS'-73'
p6073
ag17
aS' NYU-ROAM3'
p6074
asg19
g10
sg20
I-73
sg21
g6064
sg22
S'OPN'
p6075
sg24
S'2014-02-25 02:25:10'
p6076
sg26
I01
sg27
g17
sg28
(dp6077
g19
g10
sg30
g6064
sg31
I-73
sg32
(lp6078
g6069
ag6070
asg34
g6074
sg35
I54
ssg36
g6070
sg37
(lp6079
g39
asg40
I54
sg41
I1
sg42
S'NYU-ROAM3'
p6080
sbsS'84:1B:5E:37:41:83'
p6081
g2
(g3
g4
Ntp6082
Rp6083
(dp6084
g8
(lp6085
g10
ag6081
aS' 2014-03-02 23:15:15'
p6086
aS'2014-03-02 23:18:15'
p6087
aS'11'
p6088
aS'54'
p6089
aS' WPA2WPA '
p6090
aS'-89'
p6091
ag17
aS' 374184'
p6092
asg19
g10
sg20
I-89
sg21
g6081
sg22
S'WPA2WPA'
p6093
sg24
S'2014-03-02 23:15:15'
p6094
sg26
I01
sg27
g17
sg28
(dp6095
g19
g10
sg30
g6081
sg31
I-89
sg32
(lp6096
g6086
ag6087
asg34
g6092
sg35
I54
ssg36
g6087
sg37
(lp6097
g39
asg40
I54
sg41
I11
sg42
S'374184'
p6098
sbsS'04:C5:A4:8D:CA:60'
p6099
g2
(g3
g4
Ntp6100
Rp6101
(dp6102
g8
(lp6103
g10
ag6099
aS' 2014-02-25 02:07:35'
p6104
aS'2014-02-25 02:30:46'
p6105
ag13
aS'54'
p6106
aS' WPA2WPA '
p6107
aS'-79'
p6108
ag17
aS' nyu'
p6109
asg19
g10
sg20
I-79
sg21
g6099
sg22
S'WPA2WPA'
p6110
sg24
S'2014-02-25 02:07:35'
p6111
sg26
I01
sg27
g17
sg28
(dp6112
g19
g10
sg30
g6099
sg31
I-79
sg32
(lp6113
g6104
ag6105
asg34
g6109
sg35
I54
ssg36
g6105
sg37
(lp6114
g39
asg40
I54
sg41
I1
sg42
S'nyu'
p6115
sbsS'04:C5:A4:8D:CA:61'
p6116
g2
(g3
g4
Ntp6117
Rp6118
(dp6119
g8
(lp6120
g10
ag6116
aS' 2014-02-25 02:07:44'
p6121
aS'2014-02-25 02:31:17'
p6122
ag13
aS'54'
p6123
aS' OPN '
p6124
aS'-64'
p6125
ag17
aS' nyuguest'
p6126
asg19
g10
sg20
I-64
sg21
g6116
sg22
S'OPN'
p6127
sg24
S'2014-02-25 02:07:44'
p6128
sg26
I01
sg27
g17
sg28
(dp6129
g19
g10
sg30
g6116
sg31
I-64
sg32
(lp6130
g6121
ag6122
asg34
g6126
sg35
I54
ssg36
g6122
sg37
(lp6131
g39
asg40
I54
sg41
I1
sg42
S'nyuguest'
p6132
sbsS'04:C5:A4:8D:CA:62'
p6133
g2
(g3
g4
Ntp6134
Rp6135
(dp6136
g8
(lp6137
g10
ag6133
aS' 2014-02-25 02:07:35'
p6138
aS'2014-02-25 02:31:17'
p6139
ag13
aS'54'
p6140
aS' OPN '
p6141
aS'-61'
p6142
ag17
aS' NYU-ROAM3'
p6143
asg19
g10
sg20
I-61
sg21
g6133
sg22
S'OPN'
p6144
sg24
S'2014-02-25 02:07:35'
p6145
sg26
I01
sg27
g17
sg28
(dp6146
g19
g10
sg30
g6133
sg31
I-61
sg32
(lp6147
g6138
ag6139
asg34
g6143
sg35
I54
ssg36
g6139
sg37
(lp6148
g39
asg40
I54
sg41
I1
sg42
S'NYU-ROAM3'
p6149
sbsS'04:C5:A4:8D:CA:63'
p6150
g2
(g3
g4
Ntp6151
Rp6152
(dp6153
g8
(lp6154
g10
ag6150
aS' 2014-02-25 02:07:45'
p6155
aS'2014-02-25 02:31:06'
p6156
ag13
aS'54'
p6157
aS' OPN '
p6158
aS'-67'
p6159
ag17
aS' nyupda'
p6160
asg19
g10
sg20
I-67
sg21
g6150
sg22
S'OPN'
p6161
sg24
S'2014-02-25 02:07:45'
p6162
sg26
I01
sg27
g17
sg28
(dp6163
g19
g10
sg30
g6150
sg31
I-67
sg32
(lp6164
g6155
ag6156
asg34
g6160
sg35
I54
ssg36
g6156
sg37
(lp6165
g39
asg40
I54
sg41
I1
sg42
S'nyupda'
p6166
sbsS'EC:55:F9:5A:3B:F2'
p6167
g2
(g3
g4
Ntp6168
Rp6169
(dp6170
g8
(lp6171
g10
ag6167
aS' 2014-02-25 02:08:03'
p6172
aS'2014-02-25 02:31:17'
p6173
ag13
aS'54'
p6174
aS' WPA '
p6175
aS'-85'
p6176
ag17
aS' U10C022FC'
p6177
asg19
g10
sg20
I-85
sg21
g6167
sg22
S'WPA'
p6178
sg24
S'2014-02-25 02:08:03'
p6179
sg26
I01
sg27
g17
sg28
(dp6180
g19
g10
sg30
g6167
sg31
I-85
sg32
(lp6181
g6172
ag6173
asg34
g6177
sg35
I54
ssg36
g6173
sg37
(lp6182
g39
asg40
I54
sg41
I1
sg42
S'U10C022FC'
p6183
sbsS'32:C1:DE:D3:4C:B8'
p6184
g2
(g3
g4
Ntp6185
Rp6186
(dp6187
g8
(lp6188
g10
ag6184
aS' 2014-02-25 02:10:16'
p6189
aS'2014-02-25 02:31:17'
p6190
ag51
aS'11'
p6191
aS' OPN '
p6192
aS'-128'
p6193
ag17
aS' hpsetup'
p6194
asg19
g10
sg20
I-128
sg21
g6184
sg22
S'OPN'
p6195
sg24
S'2014-02-25 02:10:16'
p6196
sg26
I01
sg27
g17
sg28
(dp6197
g19
g10
sg30
g6184
sg31
I-128
sg32
(lp6198
g6189
ag6190
asg34
g6194
sg35
I11
ssg36
g6190
sg37
(lp6199
g39
asg40
I11
sg41
I6
sg42
S'hpsetup'
p6200
sbsS'C0:4A:00:8A:C4:00'
p6201
g2
(g3
g4
Ntp6202
Rp6203
(dp6204
g8
(lp6205
g10
ag6201
aS' 2014-02-25 02:07:51'
p6206
aS'2014-02-25 02:29:43'
p6207
ag1074
aS'54'
p6208
aS' WPA2WPA '
p6209
aS'-86'
p6210
ag17
aS' TheHobbitHole'
p6211
asg19
g10
sg20
I-86
sg21
g6201
sg22
S'WPA2WPA'
p6212
sg24
S'2014-02-25 02:07:51'
p6213
sg26
I01
sg27
g17
sg28
(dp6214
g19
g10
sg30
g6201
sg31
I-86
sg32
(lp6215
g6206
ag6207
asg34
g6211
sg35
I54
ssg36
g6207
sg37
(lp6216
g39
asg40
I54
sg41
I5
sg42
S'TheHobbitHole'
p6217
sbsS'04:C5:A4:92:AE:22'
p6218
g2
(g3
g4
Ntp6219
Rp6220
(dp6221
g8
(lp6222
g10
ag6218
aS' 2014-02-25 02:07:43'
p6223
aS'2014-02-25 02:31:15'
p6224
aS'11'
p6225
aS'54'
p6226
aS' OPN '
p6227
aS'-74'
p6228
ag17
aS' NYU-ROAM3'
p6229
asg19
g10
sg20
I-74
sg21
g6218
sg22
S'OPN'
p6230
sg24
S'2014-02-25 02:07:43'
p6231
sg26
I01
sg27
g17
sg28
(dp6232
g19
g10
sg30
g6218
sg31
I-74
sg32
(lp6233
g6223
ag6224
asg34
g6229
sg35
I54
ssg36
g6224
sg37
(lp6234
g39
asg40
I54
sg41
I11
sg42
S'NYU-ROAM3'
p6235
sbsS'68:7F:74:33:E0:A3'
p6236
g2
(g3
g4
Ntp6237
Rp6238
(dp6239
g8
(lp6240
g10
ag6236
aS' 2014-02-25 02:11:06'
p6241
aS'2014-02-25 02:30:56'
p6242
ag13
aS'54'
p6243
aS' OPN '
p6244
aS'-85'
p6245
ag17
aS' BFam-guest'
p6246
asg19
g10
sg20
I-85
sg21
g6236
sg22
S'OPN'
p6247
sg24
S'2014-02-25 02:11:06'
p6248
sg26
I01
sg27
g17
sg28
(dp6249
g19
g10
sg30
g6236
sg31
I-85
sg32
(lp6250
g6241
ag6242
asg34
g6246
sg35
I54
ssg36
g6242
sg37
(lp6251
g39
asg40
I54
sg41
I1
sg42
S'BFam-guest'
p6252
sbsS'68:7F:74:33:E0:A2'
p6253
g2
(g3
g4
Ntp6254
Rp6255
(dp6256
g8
(lp6257
g10
ag6253
aS' 2014-02-25 02:07:35'
p6258
aS'2014-02-25 02:30:18'
p6259
ag13
aS'54'
p6260
aS' WPA2WPA '
p6261
aS'-82'
p6262
ag17
aS' BFam'
p6263
asg19
g10
sg20
I-82
sg21
g6253
sg22
S'WPA2WPA'
p6264
sg24
S'2014-02-25 02:07:35'
p6265
sg26
I01
sg27
g17
sg28
(dp6266
g19
g10
sg30
g6253
sg31
I-82
sg32
(lp6267
g6258
ag6259
asg34
g6263
sg35
I54
ssg36
g6259
sg37
(lp6268
g39
asg40
I54
sg41
I1
sg42
S'BFam'
p6269
sbsS'48:F8:B3:1B:6A:5E'
p6270
g2
(g3
g4
Ntp6271
Rp6272
(dp6273
g8
(lp6274
g10
ag6270
aS' 2014-02-25 02:13:39'
p6275
aS'2014-02-25 02:29:44'
p6276
ag51
aS'54'
p6277
aS' WPA2WPA '
p6278
aS'-83'
p6279
ag17
aS" Winner's Network"
p6280
asg19
g10
sg20
I-83
sg21
g6270
sg22
S'WPA2WPA'
p6281
sg24
S'2014-02-25 02:13:39'
p6282
sg26
I01
sg27
g17
sg28
(dp6283
g19
g10
sg30
g6270
sg31
I-83
sg32
(lp6284
g6275
ag6276
asg34
g6280
sg35
I54
ssg36
g6276
sg37
(lp6285
g39
asg40
I54
sg41
I6
sg42
S"Winner's Network"
p6286
sbsS'90:72:40:0E:C3:36'
p6287
g2
(g3
g4
Ntp6288
Rp6289
(dp6290
g8
(lp6291
g10
ag6287
aS' 2014-03-02 23:19:57'
p6292
aS'2014-03-02 23:23:27'
p6293
aS'11'
p6294
aS'54'
p6295
aS' WPA2'
p6296
aS'-88'
p6297
ag17
aS' suck it bitch'
p6298
asg19
g10
sg20
I-88
sg21
g6287
sg22
S'WPA2'
p6299
sg24
S'2014-03-02 23:19:57'
p6300
sg26
I01
sg27
g17
sg28
(dp6301
g19
g10
sg30
g6287
sg31
I-88
sg32
(lp6302
g6292
ag6293
asg34
g6298
sg35
I54
ssg36
g6293
sg37
(lp6303
g39
asg40
I54
sg41
I11
sg42
S'suck it bitch'
p6304
sbsS'04:C5:A4:8D:E1:93'
p6305
g2
(g3
g4
Ntp6306
Rp6307
(dp6308
g8
(lp6309
g10
ag6305
aS' 2014-02-25 02:16:42'
p6310
aS'2014-02-25 02:22:33'
p6311
ag51
aS'54'
p6312
aS' OPN '
p6313
aS'-79'
p6314
ag17
aS' nyupda'
p6315
asg19
g10
sg20
I-79
sg21
g6305
sg22
S'OPN'
p6316
sg24
S'2014-02-25 02:16:42'
p6317
sg26
I01
sg27
g17
sg28
(dp6318
g19
g10
sg30
g6305
sg31
I-79
sg32
(lp6319
g6310
ag6311
asg34
g6315
sg35
I54
ssg36
g6311
sg37
(lp6320
g39
asg40
I54
sg41
I6
sg42
S'nyupda'
p6321
sbsS'04:C5:A4:8D:E1:92'
p6322
g2
(g3
g4
Ntp6323
Rp6324
(dp6325
g8
(lp6326
g10
ag6322
aS' 2014-02-25 02:17:30'
p6327
aS'2014-02-25 02:20:11'
p6328
ag51
aS'54'
p6329
aS' OPN '
p6330
aS'-80'
p6331
ag17
aS' NYU-ROAM3'
p6332
asg19
g10
sg20
I-80
sg21
g6322
sg22
S'OPN'
p6333
sg24
S'2014-02-25 02:17:30'
p6334
sg26
I01
sg27
g17
sg28
(dp6335
g19
g10
sg30
g6322
sg31
I-80
sg32
(lp6336
g6327
ag6328
asg34
g6332
sg35
I54
ssg36
g6328
sg37
(lp6337
g39
asg40
I54
sg41
I6
sg42
S'NYU-ROAM3'
p6338
sbsS'04:C5:A4:8D:E1:91'
p6339
g2
(g3
g4
Ntp6340
Rp6341
(dp6342
g8
(lp6343
g10
ag6339
aS' 2014-02-25 02:18:37'
p6344
aS'2014-02-25 02:20:11'
p6345
ag51
aS'54'
p6346
aS' OPN '
p6347
aS'-79'
p6348
ag17
aS' nyuguest'
p6349
asg19
g10
sg20
I-79
sg21
g6339
sg22
S'OPN'
p6350
sg24
S'2014-02-25 02:18:37'
p6351
sg26
I01
sg27
g17
sg28
(dp6352
g19
g10
sg30
g6339
sg31
I-79
sg32
(lp6353
g6344
ag6345
asg34
g6349
sg35
I54
ssg36
g6345
sg37
(lp6354
g39
asg40
I54
sg41
I6
sg42
S'nyuguest'
p6355
sbsS'04:C5:A4:8D:E1:90'
p6356
g2
(g3
g4
Ntp6357
Rp6358
(dp6359
g8
(lp6360
g10
ag6356
aS' 2014-02-25 02:17:49'
p6361
aS'2014-02-25 02:20:30'
p6362
ag51
aS'54'
p6363
aS' WPA2WPA '
p6364
aS'-79'
p6365
ag17
aS' nyu'
p6366
asg19
g10
sg20
I-79
sg21
g6356
sg22
S'WPA2WPA'
p6367
sg24
S'2014-02-25 02:17:49'
p6368
sg26
I01
sg27
g17
sg28
(dp6369
g19
g10
sg30
g6356
sg31
I-79
sg32
(lp6370
g6361
ag6362
asg34
g6366
sg35
I54
ssg36
g6362
sg37
(lp6371
g39
asg40
I54
sg41
I6
sg42
S'nyu'
p6372
sbsS'30:46:9A:8B:E6:A2'
p6373
g2
(g3
g4
Ntp6374
Rp6375
(dp6376
g8
(lp6377
g10
ag6373
aS' 2014-02-25 02:07:35'
p6378
aS'2014-02-25 02:31:18'
p6379
ag13
aS'54'
p6380
aS' WPA2WPA '
p6381
aS'-76'
p6382
ag17
aS' peglegs'
p6383
asg19
g10
sg20
I-76
sg21
g6373
sg22
S'WPA2WPA'
p6384
sg24
S'2014-02-25 02:07:35'
p6385
sg26
I01
sg27
g17
sg28
(dp6386
g19
g10
sg30
g6373
sg31
I-76
sg32
(lp6387
g6378
ag6379
asg34
g6383
sg35
I54
ssg36
g6379
sg37
(lp6388
g39
asg40
I54
sg41
I1
sg42
S'peglegs'
p6389
sbsS'10:9A:DD:82:11:2D'
p6390
g2
(g3
g4
Ntp6391
Rp6392
(dp6393
g8
(lp6394
g10
ag6390
aS' 2014-02-25 02:07:35'
p6395
aS'2014-02-25 02:31:17'
p6396
ag13
aS'54'
p6397
aS' WPA2WPA '
p6398
aS'-80'
p6399
ag17
aS' toufi'
p6400
asg19
g10
sg20
I-80
sg21
g6390
sg22
S'WPA2WPA'
p6401
sg24
S'2014-02-25 02:07:35'
p6402
sg26
I01
sg27
g17
sg28
(dp6403
g19
g10
sg30
g6390
sg31
I-80
sg32
(lp6404
g6395
ag6396
asg34
g6400
sg35
I54
ssg36
g6396
sg37
(lp6405
g39
asg40
I54
sg41
I1
sg42
S'toufi'
p6406
sbsS'94:44:52:8C:1D:5B'
p6407
g2
(g3
g4
Ntp6408
Rp6409
(dp6410
g8
(lp6411
g10
ag6407
aS' 2014-03-02 23:43:23'
p6412
aS'2014-03-02 23:58:08'
p6413
ag13
aS'54'
p6414
aS' WPA2'
p6415
aS'-88'
p6416
ag17
aS' Nail Salon'
p6417
asg19
g10
sg20
I-88
sg21
g6407
sg22
g6415
sg24
g6412
sg26
I01
sg27
g17
sg28
(dp6418
g19
g10
sg30
g6407
sg31
I-88
sg32
g6413
sg34
S' Nail Salon'
p6419
sg35
I54
ssg36
g6413
sg37
g73
sg40
I54
sg41
I1
sg42
g6417
sbsS'04:C5:A4:92:5A:72'
p6420
g2
(g3
g4
Ntp6421
Rp6422
(dp6423
g8
(lp6424
g10
ag6420
aS' 2014-02-25 02:14:36'
p6425
aS'2014-02-25 02:14:37'
p6426
aS'11'
p6427
aS'-1'
p6428
aS'     '
p6429
aS'-128'
p6430
ag17
ag73
asg19
g10
sg20
I-128
sg21
g6420
sg22
g39
sg24
S'2014-02-25 02:14:36'
p6431
sg26
I01
sg27
g17
sg28
(dp6432
g19
g10
sg30
g6420
sg31
I-128
sg32
(lp6433
g6425
ag6426
asg34
g73
sg35
I-1
ssg36
g6426
sg37
(lp6434
g39
asg40
I-1
sg41
I11
sg42
g39
sbsS'20:C9:D0:1A:71:BB'
p6435
g2
(g3
g4
Ntp6436
Rp6437
(dp6438
g8
(lp6439
g10
ag6435
aS' 2014-02-25 02:08:35'
p6440
aS'2014-02-25 02:30:58'
p6441
ag728
aS'54'
p6442
aS' WPA2'
p6443
aS'-85'
p6444
ag17
aS" BigLaz's Network"
p6445
asg19
g10
sg20
I-85
sg21
g6435
sg22
S'WPA2'
p6446
sg24
S'2014-02-25 02:08:35'
p6447
sg26
I01
sg27
g17
sg28
(dp6448
g19
g10
sg30
g6435
sg31
I-85
sg32
(lp6449
g6440
ag6441
asg34
g6445
sg35
I54
ssg36
g6441
sg37
(lp6450
g39
asg40
I54
sg41
I2
sg42
S"BigLaz's Network"
p6451
sbsS'A0:21:B7:9B:90:D5'
p6452
g2
(g3
g4
Ntp6453
Rp6454
(dp6455
g8
(lp6456
g10
ag6452
aS' 2014-03-02 23:08:08'
p6457
aS'2014-03-02 23:26:00'
p6458
ag728
aS'54'
p6459
aS' WPA2WPA '
p6460
aS'-89'
p6461
ag17
ag73
asg19
g10
sg20
I-89
sg21
g6452
sg22
S'WPA2WPA'
p6462
sg24
S'2014-03-02 23:08:08'
p6463
sg26
I01
sg27
g17
sg28
(dp6464
g19
g10
sg30
g6452
sg31
I-89
sg32
(lp6465
g6457
ag6458
asg34
g73
sg35
I54
ssg36
g6458
sg37
(lp6466
g39
asg40
I54
sg41
I2
sg42
g39
sbsS'04:C5:A4:92:55:F3'
p6467
g2
(g3
g4
Ntp6468
Rp6469
(dp6470
g8
(lp6471
g10
ag6467
aS' 2014-02-25 02:07:43'
p6472
aS'2014-02-25 02:22:42'
p6473
ag51
aS'54'
p6474
aS' OPN '
p6475
aS'-73'
p6476
ag17
aS' nyupda'
p6477
asg19
g10
sg20
I-73
sg21
g6467
sg22
S'OPN'
p6478
sg24
S'2014-02-25 02:07:43'
p6479
sg26
I01
sg27
g17
sg28
(dp6480
g19
g10
sg30
g6467
sg31
I-73
sg32
(lp6481
g6472
ag6473
asg34
g6477
sg35
I54
ssg36
g6473
sg37
(lp6482
g39
asg40
I54
sg41
I6
sg42
S'nyupda'
p6483
sbsS'04:C5:A4:92:55:F2'
p6484
g2
(g3
g4
Ntp6485
Rp6486
(dp6487
g8
(lp6488
g10
ag6484
aS' 2014-02-25 02:08:41'
p6489
aS'2014-02-25 02:22:42'
p6490
ag51
aS'54'
p6491
aS' OPN '
p6492
aS'-78'
p6493
ag17
aS' NYU-ROAM3'
p6494
asg19
g10
sg20
I-78
sg21
g6484
sg22
S'OPN'
p6495
sg24
S'2014-02-25 02:08:41'
p6496
sg26
I01
sg27
g17
sg28
(dp6497
g19
g10
sg30
g6484
sg31
I-78
sg32
(lp6498
g6489
ag6490
asg34
g6494
sg35
I54
ssg36
g6490
sg37
(lp6499
g39
asg40
I54
sg41
I6
sg42
S'NYU-ROAM3'
p6500
sbsS'04:C5:A4:92:55:F1'
p6501
g2
(g3
g4
Ntp6502
Rp6503
(dp6504
g8
(lp6505
g10
ag6501
aS' 2014-02-25 02:07:52'
p6506
aS'2014-02-25 02:22:53'
p6507
ag51
aS'54'
p6508
aS' OPN '
p6509
aS'-73'
p6510
ag17
aS' nyuguest'
p6511
asg19
g10
sg20
I-73
sg21
g6501
sg22
S'OPN'
p6512
sg24
S'2014-02-25 02:07:52'
p6513
sg26
I01
sg27
g17
sg28
(dp6514
g19
g10
sg30
g6501
sg31
I-73
sg32
(lp6515
g6506
ag6507
asg34
g6511
sg35
I54
ssg36
g6507
sg37
(lp6516
g39
asg40
I54
sg41
I6
sg42
S'nyuguest'
p6517
sbsS'04:C5:A4:92:55:F0'
p6518
g2
(g3
g4
Ntp6519
Rp6520
(dp6521
g8
(lp6522
g10
ag6518
aS' 2014-02-25 02:08:50'
p6523
aS'2014-02-25 02:22:53'
p6524
ag51
aS'54'
p6525
aS' WPA2WPA '
p6526
aS'-71'
p6527
ag17
aS' nyu'
p6528
asg19
g10
sg20
I-71
sg21
g6518
sg22
S'WPA2WPA'
p6529
sg24
S'2014-02-25 02:08:50'
p6530
sg26
I01
sg27
g17
sg28
(dp6531
g19
g10
sg30
g6518
sg31
I-71
sg32
(lp6532
g6523
ag6524
asg34
g6528
sg35
I54
ssg36
g6524
sg37
(lp6533
g39
asg40
I54
sg41
I6
sg42
S'nyu'
p6534
sbsS'60:A4:4C:D3:69:60'
p6535
g2
(g3
g4
Ntp6536
Rp6537
(dp6538
g8
(lp6539
g10
ag6535
aS' 2014-02-25 02:08:02'
p6540
aS'2014-02-25 02:31:05'
p6541
ag51
aS'54'
p6542
aS' WPA2'
p6543
aS'-82'
p6544
ag17
aS' JonSnow'
p6545
asg19
g10
sg20
I-82
sg21
g6535
sg22
S'WPA2'
p6546
sg24
S'2014-02-25 02:08:02'
p6547
sg26
I01
sg27
g17
sg28
(dp6548
g19
g10
sg30
g6535
sg31
I-82
sg32
(lp6549
g6540
ag6541
asg34
g6545
sg35
I54
ssg36
g6541
sg37
(lp6550
g39
asg40
I54
sg41
I6
sg42
S'JonSnow'
p6551
sbsS'00:0E:58:BB:C8:BE'
p6552
g2
(g3
g4
Ntp6553
Rp6554
(dp6555
g8
(lp6556
g10
ag6552
aS' 2014-02-25 02:14:37'
p6557
aS'2014-02-25 02:20:30'
p6558
aS'158'
p6559
aS'-1'
p6560
aS' WPA '
p6561
aS'-128'
p6562
ag17
ag73
asg19
g10
sg20
I-128
sg21
g6552
sg22
S'WPA'
p6563
sg24
S'2014-02-25 02:14:37'
p6564
sg26
I01
sg27
g17
sg28
(dp6565
g19
g10
sg30
g6552
sg31
I-128
sg32
(lp6566
g6557
ag6558
asg34
g73
sg35
I-1
ssg36
g6558
sg37
(lp6567
g39
asg40
I-1
sg41
I158
sg42
g39
sbsS'98:FC:11:46:2C:7B'
p6568
g2
(g3
g4
Ntp6569
Rp6570
(dp6571
g8
(lp6572
g10
ag6568
aS' 2014-02-25 02:07:54'
p6573
aS'2014-02-25 02:31:17'
p6574
ag13
aS'54'
p6575
aS' WPA2WPA '
p6576
aS'-78'
p6577
ag17
aS' Switch856'
p6578
asg19
g10
sg20
I-78
sg21
g6568
sg22
S'WPA2WPA'
p6579
sg24
S'2014-02-25 02:07:54'
p6580
sg26
I01
sg27
g17
sg28
(dp6581
g19
g10
sg30
g6568
sg31
I-78
sg32
(lp6582
g6573
ag6574
asg34
g6578
sg35
I54
ssg36
g6574
sg37
(lp6583
g39
asg40
I54
sg41
I1
sg42
S'Switch856'
p6584
sbsS'00:18:F8:F8:C9:8A'
p6585
g2
(g3
g4
Ntp6586
Rp6587
(dp6588
g8
(lp6589
g10
ag6585
aS' 2014-03-02 23:42:23'
p6590
aS'2014-03-02 23:58:23'
p6591
ag51
aS'54'
p6592
aS' WPA2'
p6593
aS'-70'
p6594
ag17
aS' Big Fat Ginger'
p6595
asg19
g10
sg20
I-70
sg21
g6585
sg22
g6593
sg24
g6590
sg26
I01
sg27
g17
sg28
(dp6596
g19
g10
sg30
g6585
sg31
I-70
sg32
g6591
sg34
S' Big Fat Ginger'
p6597
sg35
I54
ssg36
g6591
sg37
g73
sg40
I54
sg41
I6
sg42
g6595
sbsS'00:0F:66:80:F7:EC'
p6598
g2
(g3
g4
Ntp6599
Rp6600
(dp6601
g8
(lp6602
g10
ag6598
aS' 2014-02-25 02:07:50'
p6603
aS'2014-02-25 02:09:45'
p6604
ag1861
aS'54'
p6605
aS' WPA2'
p6606
aS'-90'
p6607
ag17
aS' CTWOMEN'
p6608
asg19
g10
sg20
I-90
sg21
g6598
sg22
S'WPA2'
p6609
sg24
S'2014-02-25 02:07:50'
p6610
sg26
I01
sg27
g17
sg28
(dp6611
g19
g10
sg30
g6598
sg31
I-90
sg32
(lp6612
g6603
ag6604
asg34
g6608
sg35
I54
ssg36
g6604
sg37
(lp6613
g39
asg40
I54
sg41
I4
sg42
S'CTWOMEN'
p6614
sbsS'98:FC:11:42:08:5E'
p6615
g2
(g3
g4
Ntp6616
Rp6617
(dp6618
g8
(lp6619
g10
ag6615
aS' 2014-02-25 02:27:43'
p6620
aS'2014-02-25 02:30:21'
p6621
ag51
aS'54'
p6622
aS' WPA2WPA '
p6623
aS'-85'
p6624
ag17
aS' Cisco02005'
p6625
asg19
g10
sg20
I-85
sg21
g6615
sg22
S'WPA2WPA'
p6626
sg24
S'2014-02-25 02:27:43'
p6627
sg26
I01
sg27
g17
sg28
(dp6628
g19
g10
sg30
g6615
sg31
I-85
sg32
(lp6629
g6620
ag6621
asg34
g6625
sg35
I54
ssg36
g6621
sg37
(lp6630
g39
asg40
I54
sg41
I6
sg42
S'Cisco02005'
p6631
sbsS'C0:C1:C0:8B:6E:4B'
p6632
g2
(g3
g4
Ntp6633
Rp6634
(dp6635
g8
(lp6636
g10
ag6632
aS' 2014-02-25 02:08:13'
p6637
aS'2014-02-25 02:31:18'
p6638
ag13
aS'54'
p6639
aS' WPA2WPA '
p6640
aS'-70'
p6641
ag17
aS' Suvall'
p6642
asg19
g10
sg20
I-70
sg21
g6632
sg22
S'WPA2WPA'
p6643
sg24
S'2014-02-25 02:08:13'
p6644
sg26
I01
sg27
g17
sg28
(dp6645
g19
g10
sg30
g6632
sg31
I-70
sg32
(lp6646
g6637
ag6638
asg34
g6642
sg35
I54
ssg36
g6638
sg37
(lp6647
g39
asg40
I54
sg41
I1
sg42
S'Suvall'
p6648
sbsS'86:1B:5E:CF:9E:93'
p6649
g2
(g3
g4
Ntp6650
Rp6651
(dp6652
g8
(lp6653
g10
ag6649
aS' 2014-02-25 02:07:52'
p6654
aS'2014-02-25 02:31:04'
p6655
aS'11'
p6656
aS'54'
p6657
aS' WPA2'
p6658
aS'-77'
p6659
ag17
aS' TSIG-Guest2.4'
p6660
asg19
g10
sg20
I-77
sg21
g6649
sg22
S'WPA2'
p6661
sg24
S'2014-02-25 02:07:52'
p6662
sg26
I01
sg27
g17
sg28
(dp6663
g19
g10
sg30
g6649
sg31
I-77
sg32
(lp6664
g6654
ag6655
asg34
g6660
sg35
I54
ssg36
g6655
sg37
(lp6665
g39
asg40
I54
sg41
I11
sg42
S'TSIG-Guest2.4'
p6666
sbsS'08:17:35:DD:C3:50'
p6667
g2
(g3
g4
Ntp6668
Rp6669
(dp6670
g8
(lp6671
g10
ag6667
aS' 2014-02-25 02:28:13'
p6672
aS'2014-02-25 02:28:33'
p6673
aS'133'
p6674
aS'-1'
p6675
aS' OPN '
p6676
aS'-128'
p6677
ag17
ag73
asg19
g10
sg20
I-128
sg21
g6667
sg22
S'OPN'
p6678
sg24
S'2014-02-25 02:28:13'
p6679
sg26
I01
sg27
g17
sg28
(dp6680
g19
g10
sg30
g6667
sg31
I-128
sg32
(lp6681
g6672
ag6673
asg34
g73
sg35
I-1
ssg36
g6673
sg37
(lp6682
g39
asg40
I-1
sg41
I133
sg42
g39
sbsS'28:CF:DA:B3:D6:09'
p6683
g2
(g3
g4
Ntp6684
Rp6685
(dp6686
g8
(lp6687
g10
ag6683
aS' 2014-02-25 02:25:54'
p6688
aS'2014-02-25 02:30:12'
p6689
aS'10'
p6690
aS'54'
p6691
aS' WPA2'
p6692
aS'-88'
p6693
ag17
aS' BT NET'
p6694
asg19
g10
sg20
I-88
sg21
g6683
sg22
S'WPA2'
p6695
sg24
S'2014-02-25 02:25:54'
p6696
sg26
I01
sg27
g17
sg28
(dp6697
g19
g10
sg30
g6683
sg31
I-88
sg32
(lp6698
g6688
ag6689
asg34
g6694
sg35
I54
ssg36
g6689
sg37
(lp6699
g39
asg40
I54
sg41
I10
sg42
S'BT NET'
p6700
sbsS'98:FC:11:57:E1:86'
p6701
g2
(g3
g4
Ntp6702
Rp6703
(dp6704
g8
(lp6705
g10
ag6701
aS' 2014-02-25 02:08:02'
p6706
aS'2014-02-25 02:09:38'
p6707
ag51
aS'54'
p6708
aS' WPA2WPA '
p6709
aS'-91'
p6710
ag17
aS' NoMeansYes'
p6711
asg19
g10
sg20
I-91
sg21
g6701
sg22
S'WPA2WPA'
p6712
sg24
S'2014-02-25 02:08:02'
p6713
sg26
I01
sg27
g17
sg28
(dp6714
g19
g10
sg30
g6701
sg31
I-91
sg32
(lp6715
g6706
ag6707
asg34
g6711
sg35
I54
ssg36
g6707
sg37
(lp6716
g39
asg40
I54
sg41
I6
sg42
S'NoMeansYes'
p6717
sbsS'C0:C1:C0:97:D2:63'
p6718
g2
(g3
g4
Ntp6719
Rp6720
(dp6721
g8
(lp6722
g10
ag6718
aS' 2014-02-25 02:08:10'
p6723
aS'2014-02-25 02:26:15'
p6724
ag51
aS'54'
p6725
aS' WPA2WPA '
p6726
aS'-88'
p6727
ag17
aS' TiestoRocks'
p6728
asg19
g10
sg20
I-88
sg21
g6718
sg22
S'WPA2WPA'
p6729
sg24
S'2014-02-25 02:08:10'
p6730
sg26
I01
sg27
g17
sg28
(dp6731
g19
g10
sg30
g6718
sg31
I-88
sg32
(lp6732
g6723
ag6724
asg34
g6728
sg35
I54
ssg36
g6724
sg37
(lp6733
g39
asg40
I54
sg41
I6
sg42
S'TiestoRocks'
p6734
sbsS'02:26:C6:71:11:6D'
p6735
g2
(g3
g4
Ntp6736
Rp6737
(dp6738
g8
(lp6739
g10
ag6735
aS' 2014-02-25 02:09:27'
p6740
aS'2014-02-25 02:26:03'
p6741
aS'10'
p6742
aS'11'
p6743
aS' OPN '
p6744
aS'-128'
p6745
ag17
aS' HP89DEA6'
p6746
asg19
g10
sg20
I-128
sg21
g6735
sg22
S'OPN'
p6747
sg24
S'2014-02-25 02:09:27'
p6748
sg26
I01
sg27
g17
sg28
(dp6749
g19
g10
sg30
g6735
sg31
I-128
sg32
(lp6750
g6740
ag6741
asg34
g6746
sg35
I11
ssg36
g6741
sg37
(lp6751
g39
asg40
I11
sg41
I10
sg42
S'HP89DEA6'
p6752
sbsS'04:C5:A4:92:4D:00'
p6753
g2
(g3
g4
Ntp6754
Rp6755
(dp6756
g8
(lp6757
g10
ag6753
aS' 2014-02-25 02:16:44'
p6758
aS'2014-02-25 02:27:42'
p6759
aS'108'
p6760
aS'-1'
p6761
aS' OPN '
p6762
aS'-81'
p6763
ag17
ag73
asg19
g10
sg20
I-81
sg21
g6753
sg22
S'OPN'
p6764
sg24
S'2014-02-25 02:16:44'
p6765
sg26
I01
sg27
g17
sg28
(dp6766
g19
g10
sg30
g6753
sg31
I-81
sg32
(lp6767
g6758
ag6759
asg34
g73
sg35
I-1
ssg36
g6759
sg37
(lp6768
g39
asg40
I-1
sg41
I108
sg42
g39
sbs.